---
triple:          'x86_64-apple-darwin'
binary-path:     '/Volumes/D-Drive/code/c++/tutorials/quad_tree_v2/main'
relocations:
  - { offsetInCU: 0x3F, offset: 0x3F, size: 0x8, addend: 0x0, symName: _windowSize, symObjAddr: 0x78758, symBinAddr: 0x100010000, symSize: 0x0 }
  - { offsetInCU: 0x4355, offset: 0x4355, size: 0x8, addend: 0x0, symName: __ZN2sfdvIfEENS_7Vector2IT_EERKS3_S2_, symObjAddr: 0x50A0, symBinAddr: 0x100008D60, symSize: 0x40 }
  - { offsetInCU: 0x43B1, offset: 0x43B1, size: 0x8, addend: 0x0, symName: _bgColor, symObjAddr: 0x78760, symBinAddr: 0x100010008, symSize: 0x0 }
  - { offsetInCU: 0x14DEC, offset: 0x14DEC, size: 0x8, addend: 0x0, symName: __ZNSt3__119__debug_db_insert_cB7v160006INS_12basic_stringIcNS_11char_traitsIcEENS_9allocatorIcEEEEEEvPT_, symObjAddr: 0xF40, symBinAddr: 0x100004C00, symSize: 0x10 }
  - { offsetInCU: 0x14E1D, offset: 0x14E1D, size: 0x8, addend: 0x0, symName: __ZNSt3__118__constexpr_strlenB7v160006EPKc, symObjAddr: 0xFE0, symBinAddr: 0x100004CA0, symSize: 0x20 }
  - { offsetInCU: 0x14E49, offset: 0x14E49, size: 0x8, addend: 0x0, symName: __ZNSt3__122__make_exception_guardB7v160006INS_6vectorIN2sf6VertexENS_9allocatorIS3_EEE16__destroy_vectorEEENS_28__exception_guard_exceptionsIT_EES9_, symObjAddr: 0x1860, symBinAddr: 0x100005520, symSize: 0x40 }
  - { offsetInCU: 0x14E7E, offset: 0x14E7E, size: 0x8, addend: 0x0, symName: __ZNSt3__119__debug_db_insert_cB7v160006INS_6vectorIN2sf6VertexENS_9allocatorIS3_EEEEEEvPT_, symObjAddr: 0x18D0, symBinAddr: 0x100005590, symSize: 0x10 }
  - { offsetInCU: 0x14EAF, offset: 0x14EAF, size: 0x8, addend: 0x0, symName: __ZNSt3__119__allocate_at_leastB7v160006INS_9allocatorIN2sf6VertexEEEEENS_19__allocation_resultINS_16allocator_traitsIT_E7pointerEEERS7_m, symObjAddr: 0x1C10, symBinAddr: 0x1000058D0, symSize: 0x40 }
  - { offsetInCU: 0x14EF2, offset: 0x14EF2, size: 0x8, addend: 0x0, symName: __ZNSt3__13minB7v160006ImEERKT_S3_S3_, symObjAddr: 0x1D30, symBinAddr: 0x1000059F0, symSize: 0x30 }
  - { offsetInCU: 0x1511F, offset: 0x1511F, size: 0x8, addend: 0x0, symName: __ZNSt3__13minB7v160006ImNS_6__lessImmEEEERKT_S5_S5_T0_, symObjAddr: 0x1D90, symBinAddr: 0x100005A50, symSize: 0x50 }
  - { offsetInCU: 0x151B4, offset: 0x151B4, size: 0x8, addend: 0x0, symName: __ZNSt3__120__throw_length_errorB7v160006EPKc, symObjAddr: 0x1E40, symBinAddr: 0x100005B00, symSize: 0x70 }
  - { offsetInCU: 0x151DC, offset: 0x151DC, size: 0x8, addend: 0x0, symName: __ZNSt3__117__libcpp_allocateB7v160006Emm, symObjAddr: 0x1FB0, symBinAddr: 0x100005C70, symSize: 0x60 }
  - { offsetInCU: 0x15236, offset: 0x15236, size: 0x8, addend: 0x0, symName: __ZNSt3__124__is_overaligned_for_newB7v160006Em, symObjAddr: 0x2010, symBinAddr: 0x100005CD0, symSize: 0x20 }
  - { offsetInCU: 0x15264, offset: 0x15264, size: 0x8, addend: 0x0, symName: __ZNSt3__121__libcpp_operator_newB7v160006IJmSt11align_val_tEEEPvDpT_, symObjAddr: 0x2030, symBinAddr: 0x100005CF0, symSize: 0x30 }
  - { offsetInCU: 0x152B1, offset: 0x152B1, size: 0x8, addend: 0x0, symName: __ZNSt3__121__libcpp_operator_newB7v160006IJmEEEPvDpT_, symObjAddr: 0x2060, symBinAddr: 0x100005D20, symSize: 0x20 }
  - { offsetInCU: 0x152EA, offset: 0x152EA, size: 0x8, addend: 0x0, symName: __ZNSt3__112__to_addressB7v160006IN2sf6VertexEEEPT_S4_, symObjAddr: 0x2160, symBinAddr: 0x100005E20, symSize: 0x10 }
  - { offsetInCU: 0x1531F, offset: 0x1531F, size: 0x8, addend: 0x0, symName: __ZNSt3__130__uninitialized_allocator_copyB7v160006INS_9allocatorIN2sf6VertexEEEPS3_S5_S5_EET2_RT_T0_T1_S6_, symObjAddr: 0x21F0, symBinAddr: 0x100005EB0, symSize: 0x100 }
  - { offsetInCU: 0x153BD, offset: 0x153BD, size: 0x8, addend: 0x0, symName: __ZNSt3__122__make_exception_guardB7v160006INS_29_AllocatorDestroyRangeReverseINS_9allocatorIN2sf6VertexEEEPS4_EEEENS_28__exception_guard_exceptionsIT_EES9_, symObjAddr: 0x2350, symBinAddr: 0x100006010, symSize: 0x60 }
  - { offsetInCU: 0x153F2, offset: 0x153F2, size: 0x8, addend: 0x0, symName: __ZNSt3__119__allocator_destroyB7v160006INS_9allocatorIN2sf6VertexEEENS_16reverse_iteratorIPS3_EES7_EEvRT_T0_T1_, symObjAddr: 0x25E0, symBinAddr: 0x1000062A0, symSize: 0x70 }
  - { offsetInCU: 0x15455, offset: 0x15455, size: 0x8, addend: 0x0, symName: __ZNSt3__1neB7v160006IPN2sf6VertexES3_EEbRKNS_16reverse_iteratorIT_EERKNS4_IT0_EE, symObjAddr: 0x2680, symBinAddr: 0x100006340, symSize: 0x40 }
  - { offsetInCU: 0x154A1, offset: 0x154A1, size: 0x8, addend: 0x0, symName: __ZNSt3__112__to_addressB7v160006INS_16reverse_iteratorIPN2sf6VertexEEEvEENS_5decayIDTclsr19__to_address_helperIT_EE6__callclsr3stdE7declvalIRKS7_EEEEE4typeES9_, symObjAddr: 0x26F0, symBinAddr: 0x1000063B0, symSize: 0x20 }
  - { offsetInCU: 0x15500, offset: 0x15500, size: 0x8, addend: 0x0, symName: __ZNSt3__118__debug_db_erase_cB7v160006INS_6vectorIN2sf6VertexENS_9allocatorIS3_EEEEEEvPT_, symObjAddr: 0x29C0, symBinAddr: 0x100006680, symSize: 0x10 }
  - { offsetInCU: 0x15531, offset: 0x15531, size: 0x8, addend: 0x0, symName: __ZNSt3__119__libcpp_deallocateB7v160006EPvmm, symObjAddr: 0x2AF0, symBinAddr: 0x1000067B0, symSize: 0x60 }
  - { offsetInCU: 0x15596, offset: 0x15596, size: 0x8, addend: 0x0, symName: __ZNSt3__127__do_deallocate_handle_sizeB7v160006IJSt11align_val_tEEEvPvmDpT_, symObjAddr: 0x2B50, symBinAddr: 0x100006810, symSize: 0x30 }
  - { offsetInCU: 0x155E9, offset: 0x155E9, size: 0x8, addend: 0x0, symName: __ZNSt3__127__do_deallocate_handle_sizeB7v160006IJEEEvPvmDpT_, symObjAddr: 0x2B80, symBinAddr: 0x100006840, symSize: 0x20 }
  - { offsetInCU: 0x15627, offset: 0x15627, size: 0x8, addend: 0x0, symName: __ZNSt3__124__libcpp_operator_deleteB7v160006IJPvSt11align_val_tEEEvDpT_, symObjAddr: 0x2BA0, symBinAddr: 0x100006860, symSize: 0x30 }
  - { offsetInCU: 0x15670, offset: 0x15670, size: 0x8, addend: 0x0, symName: __ZNSt3__124__libcpp_operator_deleteB7v160006IJPvEEEvDpT_, symObjAddr: 0x2BD0, symBinAddr: 0x100006890, symSize: 0x20 }
  - { offsetInCU: 0x156A5, offset: 0x156A5, size: 0x8, addend: 0x0, symName: __ZNSt3__119__debug_db_insert_cB7v160006INS_6vectorINS_17reference_wrapperI8ParticleEENS_9allocatorIS4_EEEEEEvPT_, symObjAddr: 0x2E20, symBinAddr: 0x100006AE0, symSize: 0x10 }
  - { offsetInCU: 0x156D6, offset: 0x156D6, size: 0x8, addend: 0x0, symName: __ZNSt3__112__to_addressB7v160006INS_17reference_wrapperI8ParticleEEEEPT_S5_, symObjAddr: 0x3BE0, symBinAddr: 0x1000078A0, symSize: 0x10 }
  - { offsetInCU: 0x1570B, offset: 0x1570B, size: 0x8, addend: 0x0, symName: __ZNSt3__13maxB7v160006ImEERKT_S3_S3_, symObjAddr: 0x3FA0, symBinAddr: 0x100007C60, symSize: 0x30 }
  - { offsetInCU: 0x1574E, offset: 0x1574E, size: 0x8, addend: 0x0, symName: __ZNSt3__13maxB7v160006ImNS_6__lessImmEEEERKT_S5_S5_T0_, symObjAddr: 0x40B0, symBinAddr: 0x100007D70, symSize: 0x50 }
  - { offsetInCU: 0x157A8, offset: 0x157A8, size: 0x8, addend: 0x0, symName: __ZNSt3__119__allocate_at_leastB7v160006INS_9allocatorINS_17reference_wrapperI8ParticleEEEEEENS_19__allocation_resultINS_16allocator_traitsIT_E7pointerEEERS8_m, symObjAddr: 0x4200, symBinAddr: 0x100007EC0, symSize: 0x40 }
  - { offsetInCU: 0x157EB, offset: 0x157EB, size: 0x8, addend: 0x0, symName: __ZNSt3__142__uninitialized_allocator_move_if_noexceptB7v160006INS_9allocatorINS_17reference_wrapperI8ParticleEEEENS_16reverse_iteratorIPS4_EES8_S4_vEET1_RT_T0_SC_S9_, symObjAddr: 0x4440, symBinAddr: 0x100008100, symSize: 0x70 }
  - { offsetInCU: 0x15867, offset: 0x15867, size: 0x8, addend: 0x0, symName: __ZNSt3__14swapB7v160006IPNS_17reference_wrapperI8ParticleEEEENS_9enable_ifIXaasr21is_move_constructibleIT_EE5valuesr18is_move_assignableIS6_EE5valueEvE4typeERS6_S9_, symObjAddr: 0x4500, symBinAddr: 0x1000081C0, symSize: 0x40 }
  - { offsetInCU: 0x158B8, offset: 0x158B8, size: 0x8, addend: 0x0, symName: __ZNSt3__125__debug_db_invalidate_allB7v160006INS_6vectorINS_17reference_wrapperI8ParticleEENS_9allocatorIS4_EEEEEEvPT_, symObjAddr: 0x45F0, symBinAddr: 0x1000082B0, symSize: 0x10 }
  - { offsetInCU: 0x158E9, offset: 0x158E9, size: 0x8, addend: 0x0, symName: __ZNSt3__14moveB7v160006INS_16reverse_iteratorIPNS_17reference_wrapperI8ParticleEEEES6_EET0_T_S8_S7_, symObjAddr: 0x4640, symBinAddr: 0x100008300, symSize: 0x80 }
  - { offsetInCU: 0x15943, offset: 0x15943, size: 0x8, addend: 0x0, symName: __ZNSt3__16__moveB7v160006INS_17_ClassicAlgPolicyENS_16reverse_iteratorIPNS_17reference_wrapperI8ParticleEEEES7_S7_EENS_4pairIT0_T2_EES9_T1_SA_, symObjAddr: 0x46C0, symBinAddr: 0x100008380, symSize: 0x90 }
  - { offsetInCU: 0x159AF, offset: 0x159AF, size: 0x8, addend: 0x0, symName: __ZNSt3__123__dispatch_copy_or_moveB7v160006INS_17_ClassicAlgPolicyENS_11__move_loopIS1_EENS_14__move_trivialENS_16reverse_iteratorIPNS_17reference_wrapperI8ParticleEEEESA_SA_EENS_4pairIT2_T4_EESC_T3_SD_, symObjAddr: 0x4750, symBinAddr: 0x100008410, symSize: 0x90 }
  - { offsetInCU: 0x15A2D, offset: 0x15A2D, size: 0x8, addend: 0x0, symName: __ZNSt3__121__unwrap_and_dispatchB7v160006INS_10__overloadINS_11__move_loopINS_17_ClassicAlgPolicyEEENS_14__move_trivialEEENS_16reverse_iteratorIPNS_17reference_wrapperI8ParticleEEEESC_SC_Li0EEENS_4pairIT0_T2_EESE_T1_SF_, symObjAddr: 0x47E0, symBinAddr: 0x1000084A0, symSize: 0x210 }
  - { offsetInCU: 0x15ABC, offset: 0x15ABC, size: 0x8, addend: 0x0, symName: __ZNSt3__114__unwrap_rangeB7v160006INS_16reverse_iteratorIPNS_17reference_wrapperI8ParticleEEEES6_EENS_4pairIT0_S8_EET_SA_, symObjAddr: 0x49F0, symBinAddr: 0x1000086B0, symSize: 0x90 }
  - { offsetInCU: 0x15C37, offset: 0x15C37, size: 0x8, addend: 0x0, symName: __ZNSt3__113__unwrap_iterB7v160006INS_16reverse_iteratorIPNS_17reference_wrapperI8ParticleEEEENS_18__unwrap_iter_implIS6_Lb0EEELi0EEEDTclsrT0_8__unwrapclsr3stdE7declvalIT_EEEESA_, symObjAddr: 0x4B20, symBinAddr: 0x1000087E0, symSize: 0x40 }
  - { offsetInCU: 0x15C7B, offset: 0x15C7B, size: 0x8, addend: 0x0, symName: __ZNSt3__19make_pairB7v160006INS_16reverse_iteratorIPNS_17reference_wrapperI8ParticleEEEES6_EENS_4pairINS_18__unwrap_ref_decayIT_E4typeENS8_IT0_E4typeEEEOS9_OSC_, symObjAddr: 0x4B60, symBinAddr: 0x100008820, symSize: 0x30 }
  - { offsetInCU: 0x15CCA, offset: 0x15CCA, size: 0x8, addend: 0x0, symName: __ZNSt3__114__rewrap_rangeB7v160006INS_16reverse_iteratorIPNS_17reference_wrapperI8ParticleEEEES6_EET_S7_T0_, symObjAddr: 0x4B90, symBinAddr: 0x100008850, symSize: 0x60 }
  - { offsetInCU: 0x15D16, offset: 0x15D16, size: 0x8, addend: 0x0, symName: __ZNSt3__113__rewrap_iterB7v160006INS_16reverse_iteratorIPNS_17reference_wrapperI8ParticleEEEES6_NS_18__unwrap_iter_implIS6_Lb0EEEEET_S9_T0_, symObjAddr: 0x4BF0, symBinAddr: 0x1000088B0, symSize: 0x70 }
  - { offsetInCU: 0x15D6B, offset: 0x15D6B, size: 0x8, addend: 0x0, symName: __ZNSt3__1neB7v160006IPNS_17reference_wrapperI8ParticleEES4_EEbRKNS_16reverse_iteratorIT_EERKNS5_IT0_EE, symObjAddr: 0x4C60, symBinAddr: 0x100008920, symSize: 0x40 }
  - { offsetInCU: 0x15E69, offset: 0x15E69, size: 0x8, addend: 0x0, symName: __ZNSt3__118__debug_db_erase_cB7v160006INS_12basic_stringIjNS_11char_traitsIjEENS_9allocatorIjEEEEEEvPT_, symObjAddr: 0x5200, symBinAddr: 0x100008EC0, symSize: 0x10 }
  - { offsetInCU: 0x15E9A, offset: 0x15E9A, size: 0x8, addend: 0x0, symName: __ZNSt3__118__debug_db_erase_cB7v160006INS_6vectorINS_17reference_wrapperI8ParticleEENS_9allocatorIS4_EEEEEEvPT_, symObjAddr: 0x5630, symBinAddr: 0x1000092F0, symSize: 0x10 }
  - { offsetInCU: 0x15EEF, offset: 0x15EEF, size: 0x8, addend: 0x0, symName: __ZNSt3__113__countl_zeroB7v160006IjEEiT_, symObjAddr: 0x5A20, symBinAddr: 0x1000096E0, symSize: 0x40 }
  - { offsetInCU: 0x15F24, offset: 0x15F24, size: 0x8, addend: 0x0, symName: __ZNSt3__112__libcpp_clzB7v160006Ej, symObjAddr: 0x5E10, symBinAddr: 0x100009AD0, symSize: 0x20 }
  - { offsetInCU: 0x15F50, offset: 0x15F50, size: 0x8, addend: 0x0, symName: __ZNSt3__119__debug_db_insert_cB7v160006INS_6vectorI8ParticleNS_9allocatorIS2_EEEEEEvPT_, symObjAddr: 0x5F00, symBinAddr: 0x100009BC0, symSize: 0x10 }
  - { offsetInCU: 0x15F81, offset: 0x15F81, size: 0x8, addend: 0x0, symName: __ZNSt3__118__debug_db_erase_cB7v160006INS_6vectorI8ParticleNS_9allocatorIS2_EEEEEEvPT_, symObjAddr: 0x61A0, symBinAddr: 0x100009E60, symSize: 0x10 }
  - { offsetInCU: 0x15FB2, offset: 0x15FB2, size: 0x8, addend: 0x0, symName: __ZNSt3__112__to_addressB7v160006I8ParticleEEPT_S3_, symObjAddr: 0x62A0, symBinAddr: 0x100009F60, symSize: 0x10 }
  - { offsetInCU: 0x15FE7, offset: 0x15FE7, size: 0x8, addend: 0x0, symName: __ZNSt3__119__allocate_at_leastB7v160006INS_9allocatorI8ParticleEEEENS_19__allocation_resultINS_16allocator_traitsIT_E7pointerEEERS6_m, symObjAddr: 0x6C60, symBinAddr: 0x10000A920, symSize: 0x40 }
  - { offsetInCU: 0x1602A, offset: 0x1602A, size: 0x8, addend: 0x0, symName: __ZNSt3__142__uninitialized_allocator_move_if_noexceptB7v160006INS_9allocatorI8ParticleEENS_16reverse_iteratorIPS2_EES6_S6_EET2_RT_T0_T1_S7_, symObjAddr: 0x6DF0, symBinAddr: 0x10000AAB0, symSize: 0x180 }
  - { offsetInCU: 0x160C9, offset: 0x160C9, size: 0x8, addend: 0x0, symName: __ZNSt3__14swapB7v160006IP8ParticleEENS_9enable_ifIXaasr21is_move_constructibleIT_EE5valuesr18is_move_assignableIS4_EE5valueEvE4typeERS4_S7_, symObjAddr: 0x6FC0, symBinAddr: 0x10000AC80, symSize: 0x40 }
  - { offsetInCU: 0x1611A, offset: 0x1611A, size: 0x8, addend: 0x0, symName: __ZNSt3__125__debug_db_invalidate_allB7v160006INS_6vectorI8ParticleNS_9allocatorIS2_EEEEEEvPT_, symObjAddr: 0x70B0, symBinAddr: 0x10000AD70, symSize: 0x10 }
  - { offsetInCU: 0x1614B, offset: 0x1614B, size: 0x8, addend: 0x0, symName: __ZNSt3__122__make_exception_guardB7v160006INS_29_AllocatorDestroyRangeReverseINS_9allocatorI8ParticleEENS_16reverse_iteratorIPS3_EEEEEENS_28__exception_guard_exceptionsIT_EESA_, symObjAddr: 0x70C0, symBinAddr: 0x10000AD80, symSize: 0x60 }
  - { offsetInCU: 0x16180, offset: 0x16180, size: 0x8, addend: 0x0, symName: __ZNSt3__1neB7v160006IP8ParticleS2_EEbRKNS_16reverse_iteratorIT_EERKNS3_IT0_EE, symObjAddr: 0x7160, symBinAddr: 0x10000AE20, symSize: 0x40 }
  - { offsetInCU: 0x161CC, offset: 0x161CC, size: 0x8, addend: 0x0, symName: __ZNSt3__112__to_addressB7v160006INS_16reverse_iteratorIP8ParticleEEvEENS_5decayIDTclsr19__to_address_helperIT_EE6__callclsr3stdE7declvalIRKS6_EEEEE4typeES8_, symObjAddr: 0x71D0, symBinAddr: 0x10000AE90, symSize: 0x20 }
  - { offsetInCU: 0x1622B, offset: 0x1622B, size: 0x8, addend: 0x0, symName: __ZNSt3__119__allocator_destroyB7v160006INS_9allocatorI8ParticleEENS_16reverse_iteratorINS4_IPS2_EEEES7_EEvRT_T0_T1_, symObjAddr: 0x74F0, symBinAddr: 0x10000B1B0, symSize: 0x70 }
  - { offsetInCU: 0x1628E, offset: 0x1628E, size: 0x8, addend: 0x0, symName: __ZNSt3__1neB7v160006INS_16reverse_iteratorIP8ParticleEES4_EEbRKNS1_IT_EERKNS1_IT0_EE, symObjAddr: 0x7590, symBinAddr: 0x10000B250, symSize: 0x50 }
  - { offsetInCU: 0x162DA, offset: 0x162DA, size: 0x8, addend: 0x0, symName: __ZNSt3__112__to_addressB7v160006INS_16reverse_iteratorINS1_IP8ParticleEEEEvEENS_5decayIDTclsr19__to_address_helperIT_EE6__callclsr3stdE7declvalIRKS7_EEEEE4typeES9_, symObjAddr: 0x75E0, symBinAddr: 0x10000B2A0, symSize: 0x20 }
  - { offsetInCU: 0x16784, offset: 0x16784, size: 0x8, addend: 0x0, symName: __ZSt28__throw_bad_array_new_lengthB7v160006v, symObjAddr: 0x1F70, symBinAddr: 0x100005C30, symSize: 0x40 }
  - { offsetInCU: 0x179DA, offset: 0x179DA, size: 0x8, addend: 0x0, symName: __ZNSt3__16vectorINS_17reference_wrapperI8ParticleEENS_9allocatorIS3_EEE26__swap_out_circular_bufferERNS_14__split_bufferIS3_RS5_EE, symObjAddr: 0x3DA0, symBinAddr: 0x100007A60, symSize: 0x130 }
  - { offsetInCU: 0x17A76, offset: 0x17A76, size: 0x8, addend: 0x0, symName: __ZNSt3__124uniform_int_distributionIiEclINS_23mersenne_twister_engineIjLm32ELm624ELm397ELm31ELj2567483615ELm11ELj4294967295ELm7ELj2636928640ELm15ELj4022730752ELm18ELj1812433253EEEEEiRT_RKNS1_10param_typeE, symObjAddr: 0x5850, symBinAddr: 0x100009510, symSize: 0x150 }
  - { offsetInCU: 0x17C98, offset: 0x17C98, size: 0x8, addend: 0x0, symName: __ZNSt3__16vectorI8ParticleNS_9allocatorIS1_EEE26__swap_out_circular_bufferERNS_14__split_bufferIS1_RS3_EE, symObjAddr: 0x6900, symBinAddr: 0x10000A5C0, symSize: 0x130 }
  - { offsetInCU: 0x19F8A, offset: 0x19F8A, size: 0x8, addend: 0x0, symName: __Z7randIntii, symObjAddr: 0x0, symBinAddr: 0x100003CC0, symSize: 0xD0 }
  - { offsetInCU: 0x1A00A, offset: 0x1A00A, size: 0x8, addend: 0x0, symName: __ZNSt3__113random_deviceC1Ev, symObjAddr: 0xD0, symBinAddr: 0x100003D90, symSize: 0x70 }
  - { offsetInCU: 0x1A034, offset: 0x1A034, size: 0x8, addend: 0x0, symName: __ZNSt3__123mersenne_twister_engineIjLm32ELm624ELm397ELm31ELj2567483615ELm11ELj4294967295ELm7ELj2636928640ELm15ELj4022730752ELm18ELj1812433253EEC1B7v160006Ej, symObjAddr: 0x140, symBinAddr: 0x100003E00, symSize: 0x30 }
  - { offsetInCU: 0x1A06C, offset: 0x1A06C, size: 0x8, addend: 0x0, symName: __ZNSt3__124uniform_int_distributionIiEC1Eii, symObjAddr: 0x170, symBinAddr: 0x100003E30, symSize: 0x30 }
  - { offsetInCU: 0x1A0B2, offset: 0x1A0B2, size: 0x8, addend: 0x0, symName: __ZNSt3__124uniform_int_distributionIiEclINS_23mersenne_twister_engineIjLm32ELm624ELm397ELm31ELj2567483615ELm11ELj4294967295ELm7ELj2636928640ELm15ELj4022730752ELm18ELj1812433253EEEEEiRT_, symObjAddr: 0x1A0, symBinAddr: 0x100003E60, symSize: 0x30 }
  - { offsetInCU: 0x1A0EF, offset: 0x1A0EF, size: 0x8, addend: 0x0, symName: __ZN2sf7Vector2IfEC1Eff, symObjAddr: 0x1D0, symBinAddr: 0x100003E90, symSize: 0x30 }
  - { offsetInCU: 0x1A136, offset: 0x1A136, size: 0x8, addend: 0x0, symName: __Z12genRandomIntii, symObjAddr: 0x200, symBinAddr: 0x100003EC0, symSize: 0xD0 }
  - { offsetInCU: 0x1A19D, offset: 0x1A19D, size: 0x8, addend: 0x0, symName: _main, symObjAddr: 0x2D0, symBinAddr: 0x100003F90, symSize: 0x5A0 }
  - { offsetInCU: 0x1A270, offset: 0x1A270, size: 0x8, addend: 0x0, symName: __ZNSt3__16vectorI8ParticleNS_9allocatorIS1_EEEC1B7v160006Ev, symObjAddr: 0x870, symBinAddr: 0x100004530, symSize: 0x20 }
  - { offsetInCU: 0x1A33B, offset: 0x1A33B, size: 0x8, addend: 0x0, symName: __ZN9RectangleC1EN2sf7Vector2IfEES2_, symObjAddr: 0x890, symBinAddr: 0x100004550, symSize: 0x30 }
  - { offsetInCU: 0x1A38B, offset: 0x1A38B, size: 0x8, addend: 0x0, symName: __ZN9RectangleC1ERKS_, symObjAddr: 0x8C0, symBinAddr: 0x100004580, symSize: 0x30 }
  - { offsetInCU: 0x1A4A7, offset: 0x1A4A7, size: 0x8, addend: 0x0, symName: __ZN8QuadTreeC1E9Rectanglei, symObjAddr: 0x8F0, symBinAddr: 0x1000045B0, symSize: 0x30 }
  - { offsetInCU: 0x1A4EE, offset: 0x1A4EE, size: 0x8, addend: 0x0, symName: __ZN9RectangleD1Ev, symObjAddr: 0x920, symBinAddr: 0x1000045E0, symSize: 0x20 }
  - { offsetInCU: 0x1A51A, offset: 0x1A51A, size: 0x8, addend: 0x0, symName: __ZNSt3__16vectorI8ParticleNS_9allocatorIS1_EEE9push_backB7v160006EOS1_, symObjAddr: 0x940, symBinAddr: 0x100004600, symSize: 0x60 }
  - { offsetInCU: 0x1A551, offset: 0x1A551, size: 0x8, addend: 0x0, symName: __ZN8ParticleC1EN2sf7Vector2IfEE, symObjAddr: 0x9A0, symBinAddr: 0x100004660, symSize: 0x30 }
  - { offsetInCU: 0x1A589, offset: 0x1A589, size: 0x8, addend: 0x0, symName: __ZN8ParticleD1Ev, symObjAddr: 0x9D0, symBinAddr: 0x100004690, symSize: 0x20 }
  - { offsetInCU: 0x1A5B5, offset: 0x1A5B5, size: 0x8, addend: 0x0, symName: __ZN8QuadTree6insertER8Particle, symObjAddr: 0x9F0, symBinAddr: 0x1000046B0, symSize: 0x220 }
  - { offsetInCU: 0x1A5E9, offset: 0x1A5E9, size: 0x8, addend: 0x0, symName: __ZNSt3__16vectorI8ParticleNS_9allocatorIS1_EEEixB7v160006Em, symObjAddr: 0xC10, symBinAddr: 0x1000048D0, symSize: 0x20 }
  - { offsetInCU: 0x1A620, offset: 0x1A620, size: 0x8, addend: 0x0, symName: __ZN2sf15ContextSettingsC1Ejjjjjjb, symObjAddr: 0xC30, symBinAddr: 0x1000048F0, symSize: 0x60 }
  - { offsetInCU: 0x1A6AC, offset: 0x1A6AC, size: 0x8, addend: 0x0, symName: __ZN2sf6StringD1Ev, symObjAddr: 0xC90, symBinAddr: 0x100004950, symSize: 0x20 }
  - { offsetInCU: 0x1A6D8, offset: 0x1A6D8, size: 0x8, addend: 0x0, symName: __ZNKSt3__16vectorI8ParticleNS_9allocatorIS1_EEE4sizeB7v160006Ev, symObjAddr: 0xCB0, symBinAddr: 0x100004970, symSize: 0x30 }
  - { offsetInCU: 0x1A6FE, offset: 0x1A6FE, size: 0x8, addend: 0x0, symName: __ZN8Particle6updateEv, symObjAddr: 0xCE0, symBinAddr: 0x1000049A0, symSize: 0x70 }
  - { offsetInCU: 0x1A740, offset: 0x1A740, size: 0x8, addend: 0x0, symName: __ZN8Particle4drawERN2sf12RenderWindowE, symObjAddr: 0xD50, symBinAddr: 0x100004A10, symSize: 0x30 }
  - { offsetInCU: 0x1A774, offset: 0x1A774, size: 0x8, addend: 0x0, symName: __ZN8QuadTree4drawERN2sf12RenderWindowE, symObjAddr: 0xD80, symBinAddr: 0x100004A40, symSize: 0x90 }
  - { offsetInCU: 0x1A7A8, offset: 0x1A7A8, size: 0x8, addend: 0x0, symName: __ZN8QuadTreeD1Ev, symObjAddr: 0xE10, symBinAddr: 0x100004AD0, symSize: 0x20 }
  - { offsetInCU: 0x1A7D2, offset: 0x1A7D2, size: 0x8, addend: 0x0, symName: __ZNSt3__16vectorI8ParticleNS_9allocatorIS1_EEED1B7v160006Ev, symObjAddr: 0xE30, symBinAddr: 0x100004AF0, symSize: 0x20 }
  - { offsetInCU: 0x1A801, offset: 0x1A801, size: 0x8, addend: 0x0, symName: __ZNSt3__112basic_stringIcNS_11char_traitsIcEENS_9allocatorIcEEEC1B7v160006IDnEEPKc, symObjAddr: 0xE50, symBinAddr: 0x100004B10, symSize: 0x30 }
  - { offsetInCU: 0x1A83F, offset: 0x1A83F, size: 0x8, addend: 0x0, symName: __ZNSt3__112basic_stringIcNS_11char_traitsIcEENS_9allocatorIcEEEC2B7v160006IDnEEPKc, symObjAddr: 0xE80, symBinAddr: 0x100004B40, symSize: 0x60 }
  - { offsetInCU: 0x1A882, offset: 0x1A882, size: 0x8, addend: 0x0, symName: __ZNSt3__117__compressed_pairINS_12basic_stringIcNS_11char_traitsIcEENS_9allocatorIcEEE5__repES5_EC1B7v160006INS_18__default_init_tagESA_EEOT_OT0_, symObjAddr: 0xEE0, symBinAddr: 0x100004BA0, symSize: 0x30 }
  - { offsetInCU: 0x1A8DA, offset: 0x1A8DA, size: 0x8, addend: 0x0, symName: __ZNSt3__111char_traitsIcE6lengthEPKc, symObjAddr: 0xF10, symBinAddr: 0x100004BD0, symSize: 0x30 }
  - { offsetInCU: 0x1A8FD, offset: 0x1A8FD, size: 0x8, addend: 0x0, symName: __ZNSt3__117__compressed_pairINS_12basic_stringIcNS_11char_traitsIcEENS_9allocatorIcEEE5__repES5_EC2B7v160006INS_18__default_init_tagESA_EEOT_OT0_, symObjAddr: 0xF50, symBinAddr: 0x100004C10, symSize: 0x30 }
  - { offsetInCU: 0x1A955, offset: 0x1A955, size: 0x8, addend: 0x0, symName: __ZNSt3__122__compressed_pair_elemINS_12basic_stringIcNS_11char_traitsIcEENS_9allocatorIcEEE5__repELi0ELb0EEC2B7v160006ENS_18__default_init_tagE, symObjAddr: 0xF80, symBinAddr: 0x100004C40, symSize: 0x10 }
  - { offsetInCU: 0x1A98A, offset: 0x1A98A, size: 0x8, addend: 0x0, symName: __ZNSt3__122__compressed_pair_elemINS_9allocatorIcEELi1ELb1EEC2B7v160006ENS_18__default_init_tagE, symObjAddr: 0xF90, symBinAddr: 0x100004C50, symSize: 0x20 }
  - { offsetInCU: 0x1A9BF, offset: 0x1A9BF, size: 0x8, addend: 0x0, symName: __ZNSt3__19allocatorIcEC2B7v160006Ev, symObjAddr: 0xFB0, symBinAddr: 0x100004C70, symSize: 0x20 }
  - { offsetInCU: 0x1A9E9, offset: 0x1A9E9, size: 0x8, addend: 0x0, symName: __ZNSt3__116__non_trivial_ifILb1ENS_9allocatorIcEEEC2B7v160006Ev, symObjAddr: 0xFD0, symBinAddr: 0x100004C90, symSize: 0x10 }
  - { offsetInCU: 0x1AA13, offset: 0x1AA13, size: 0x8, addend: 0x0, symName: __ZN9RectangleC2EN2sf7Vector2IfEES2_, symObjAddr: 0x1010, symBinAddr: 0x100004CD0, symSize: 0x200 }
  - { offsetInCU: 0x1AA59, offset: 0x1AA59, size: 0x8, addend: 0x0, symName: __ZN2sf14RectangleShapeD1Ev, symObjAddr: 0x1210, symBinAddr: 0x100004ED0, symSize: 0x20 }
  - { offsetInCU: 0x1AA85, offset: 0x1AA85, size: 0x8, addend: 0x0, symName: __ZN2sf11CircleShapeD1Ev, symObjAddr: 0x1230, symBinAddr: 0x100004EF0, symSize: 0x20 }
  - { offsetInCU: 0x1AAB1, offset: 0x1AAB1, size: 0x8, addend: 0x0, symName: __ZN2sf14RectangleShapeD2Ev, symObjAddr: 0x1250, symBinAddr: 0x100004F10, symSize: 0x20 }
  - { offsetInCU: 0x1AADD, offset: 0x1AADD, size: 0x8, addend: 0x0, symName: __ZThn8_N2sf14RectangleShapeD1Ev, symObjAddr: 0x1270, symBinAddr: 0x100004F30, symSize: 0x20 }
  - { offsetInCU: 0x1AAF3, offset: 0x1AAF3, size: 0x8, addend: 0x0, symName: __ZN2sf11CircleShapeD2Ev, symObjAddr: 0x1290, symBinAddr: 0x100004F50, symSize: 0x20 }
  - { offsetInCU: 0x1AB1F, offset: 0x1AB1F, size: 0x8, addend: 0x0, symName: __ZThn8_N2sf11CircleShapeD1Ev, symObjAddr: 0x12B0, symBinAddr: 0x100004F70, symSize: 0x20 }
  - { offsetInCU: 0x1AB35, offset: 0x1AB35, size: 0x8, addend: 0x0, symName: __ZN9RectangleC2ERKS_, symObjAddr: 0x12D0, symBinAddr: 0x100004F90, symSize: 0x70 }
  - { offsetInCU: 0x1AB6F, offset: 0x1AB6F, size: 0x8, addend: 0x0, symName: __ZN2sf11CircleShapeC1ERKS0_, symObjAddr: 0x1340, symBinAddr: 0x100005000, symSize: 0x30 }
  - { offsetInCU: 0x1ABA9, offset: 0x1ABA9, size: 0x8, addend: 0x0, symName: __ZN2sf14RectangleShapeC1ERKS0_, symObjAddr: 0x1370, symBinAddr: 0x100005030, symSize: 0x30 }
  - { offsetInCU: 0x1ABDE, offset: 0x1ABDE, size: 0x8, addend: 0x0, symName: __ZN2sf11CircleShapeC2ERKS0_, symObjAddr: 0x13A0, symBinAddr: 0x100005060, symSize: 0x70 }
  - { offsetInCU: 0x1AC18, offset: 0x1AC18, size: 0x8, addend: 0x0, symName: __ZN2sf5ShapeC2ERKS0_, symObjAddr: 0x1410, symBinAddr: 0x1000050D0, symSize: 0x150 }
  - { offsetInCU: 0x1AC4D, offset: 0x1AC4D, size: 0x8, addend: 0x0, symName: __ZN2sf8DrawableC2ERKS0_, symObjAddr: 0x1560, symBinAddr: 0x100005220, symSize: 0x20 }
  - { offsetInCU: 0x1AC87, offset: 0x1AC87, size: 0x8, addend: 0x0, symName: __ZN2sf13TransformableC2ERKS0_, symObjAddr: 0x1580, symBinAddr: 0x100005240, symSize: 0x40 }
  - { offsetInCU: 0x1ACC1, offset: 0x1ACC1, size: 0x8, addend: 0x0, symName: __ZN2sf11VertexArrayC1ERKS0_, symObjAddr: 0x15C0, symBinAddr: 0x100005280, symSize: 0x30 }
  - { offsetInCU: 0x1ACF6, offset: 0x1ACF6, size: 0x8, addend: 0x0, symName: __ZN2sf11VertexArrayD1Ev, symObjAddr: 0x15F0, symBinAddr: 0x1000052B0, symSize: 0x20 }
  - { offsetInCU: 0x1AD22, offset: 0x1AD22, size: 0x8, addend: 0x0, symName: __ZN2sf8DrawableD2Ev, symObjAddr: 0x1610, symBinAddr: 0x1000052D0, symSize: 0x10 }
  - { offsetInCU: 0x1AD4C, offset: 0x1AD4C, size: 0x8, addend: 0x0, symName: __ZN2sf8DrawableD1Ev, symObjAddr: 0x1620, symBinAddr: 0x1000052E0, symSize: 0x10 }
  - { offsetInCU: 0x1AD76, offset: 0x1AD76, size: 0x8, addend: 0x0, symName: __ZN2sf8DrawableD0Ev, symObjAddr: 0x1630, symBinAddr: 0x1000052F0, symSize: 0x10 }
  - { offsetInCU: 0x1ADA0, offset: 0x1ADA0, size: 0x8, addend: 0x0, symName: __ZN2sf11VertexArrayC2ERKS0_, symObjAddr: 0x1640, symBinAddr: 0x100005300, symSize: 0x80 }
  - { offsetInCU: 0x1ADD5, offset: 0x1ADD5, size: 0x8, addend: 0x0, symName: __ZNSt3__16vectorIN2sf6VertexENS_9allocatorIS2_EEEC1ERKS5_, symObjAddr: 0x16C0, symBinAddr: 0x100005380, symSize: 0x30 }
  - { offsetInCU: 0x1AE10, offset: 0x1AE10, size: 0x8, addend: 0x0, symName: __ZNSt3__16vectorIN2sf6VertexENS_9allocatorIS2_EEEC2ERKS5_, symObjAddr: 0x16F0, symBinAddr: 0x1000053B0, symSize: 0x110 }
  - { offsetInCU: 0x1AE7B, offset: 0x1AE7B, size: 0x8, addend: 0x0, symName: __ZNSt3__116allocator_traitsINS_9allocatorIN2sf6VertexEEEE37select_on_container_copy_constructionB7v160006IS4_vvEES4_RKS4_, symObjAddr: 0x1800, symBinAddr: 0x1000054C0, symSize: 0x10 }
  - { offsetInCU: 0x1AEAA, offset: 0x1AEAA, size: 0x8, addend: 0x0, symName: __ZNKSt3__16vectorIN2sf6VertexENS_9allocatorIS2_EEE7__allocB7v160006Ev, symObjAddr: 0x1810, symBinAddr: 0x1000054D0, symSize: 0x20 }
  - { offsetInCU: 0x1AEDA, offset: 0x1AEDA, size: 0x8, addend: 0x0, symName: __ZNSt3__117__compressed_pairIPN2sf6VertexENS_9allocatorIS2_EEEC1B7v160006IDnS5_EEOT_OT0_, symObjAddr: 0x1830, symBinAddr: 0x1000054F0, symSize: 0x30 }
  - { offsetInCU: 0x1AF32, offset: 0x1AF32, size: 0x8, addend: 0x0, symName: __ZNSt3__16vectorIN2sf6VertexENS_9allocatorIS2_EEE16__destroy_vectorC1ERS5_, symObjAddr: 0x18A0, symBinAddr: 0x100005560, symSize: 0x30 }
  - { offsetInCU: 0x1AF6B, offset: 0x1AF6B, size: 0x8, addend: 0x0, symName: __ZNKSt3__16vectorIN2sf6VertexENS_9allocatorIS2_EEE4sizeB7v160006Ev, symObjAddr: 0x18E0, symBinAddr: 0x1000055A0, symSize: 0x30 }
  - { offsetInCU: 0x1AF91, offset: 0x1AF91, size: 0x8, addend: 0x0, symName: __ZNSt3__16vectorIN2sf6VertexENS_9allocatorIS2_EEE11__vallocateB7v160006Em, symObjAddr: 0x1910, symBinAddr: 0x1000055D0, symSize: 0xA0 }
  - { offsetInCU: 0x1AFD5, offset: 0x1AFD5, size: 0x8, addend: 0x0, symName: __ZNSt3__16vectorIN2sf6VertexENS_9allocatorIS2_EEE18__construct_at_endIPS2_Li0EEEvT_S8_m, symObjAddr: 0x19B0, symBinAddr: 0x100005670, symSize: 0x90 }
  - { offsetInCU: 0x1B048, offset: 0x1B048, size: 0x8, addend: 0x0, symName: __ZNSt3__128__exception_guard_exceptionsINS_6vectorIN2sf6VertexENS_9allocatorIS3_EEE16__destroy_vectorEE10__completeB7v160006Ev, symObjAddr: 0x1A40, symBinAddr: 0x100005700, symSize: 0x20 }
  - { offsetInCU: 0x1B06E, offset: 0x1B06E, size: 0x8, addend: 0x0, symName: __ZNSt3__128__exception_guard_exceptionsINS_6vectorIN2sf6VertexENS_9allocatorIS3_EEE16__destroy_vectorEED1B7v160006Ev, symObjAddr: 0x1A60, symBinAddr: 0x100005720, symSize: 0x20 }
  - { offsetInCU: 0x1B098, offset: 0x1B098, size: 0x8, addend: 0x0, symName: __ZNKSt3__117__compressed_pairIPN2sf6VertexENS_9allocatorIS2_EEE6secondB7v160006Ev, symObjAddr: 0x1A80, symBinAddr: 0x100005740, symSize: 0x20 }
  - { offsetInCU: 0x1B0BE, offset: 0x1B0BE, size: 0x8, addend: 0x0, symName: __ZNKSt3__122__compressed_pair_elemINS_9allocatorIN2sf6VertexEEELi1ELb1EE5__getB7v160006Ev, symObjAddr: 0x1AA0, symBinAddr: 0x100005760, symSize: 0x10 }
  - { offsetInCU: 0x1B0E4, offset: 0x1B0E4, size: 0x8, addend: 0x0, symName: __ZNSt3__117__compressed_pairIPN2sf6VertexENS_9allocatorIS2_EEEC2B7v160006IDnS5_EEOT_OT0_, symObjAddr: 0x1AB0, symBinAddr: 0x100005770, symSize: 0x40 }
  - { offsetInCU: 0x1B13C, offset: 0x1B13C, size: 0x8, addend: 0x0, symName: __ZNSt3__122__compressed_pair_elemIPN2sf6VertexELi0ELb0EEC2B7v160006IDnvEEOT_, symObjAddr: 0x1AF0, symBinAddr: 0x1000057B0, symSize: 0x20 }
  - { offsetInCU: 0x1B17E, offset: 0x1B17E, size: 0x8, addend: 0x0, symName: __ZNSt3__122__compressed_pair_elemINS_9allocatorIN2sf6VertexEEELi1ELb1EEC2B7v160006IS4_vEEOT_, symObjAddr: 0x1B10, symBinAddr: 0x1000057D0, symSize: 0x10 }
  - { offsetInCU: 0x1B1C0, offset: 0x1B1C0, size: 0x8, addend: 0x0, symName: __ZNSt3__128__exception_guard_exceptionsINS_6vectorIN2sf6VertexENS_9allocatorIS3_EEE16__destroy_vectorEEC1B7v160006ES7_, symObjAddr: 0x1B20, symBinAddr: 0x1000057E0, symSize: 0x30 }
  - { offsetInCU: 0x1B1F8, offset: 0x1B1F8, size: 0x8, addend: 0x0, symName: __ZNSt3__128__exception_guard_exceptionsINS_6vectorIN2sf6VertexENS_9allocatorIS3_EEE16__destroy_vectorEEC2B7v160006ES7_, symObjAddr: 0x1B50, symBinAddr: 0x100005810, symSize: 0x20 }
  - { offsetInCU: 0x1B230, offset: 0x1B230, size: 0x8, addend: 0x0, symName: __ZNSt3__16vectorIN2sf6VertexENS_9allocatorIS2_EEE16__destroy_vectorC2ERS5_, symObjAddr: 0x1B70, symBinAddr: 0x100005830, symSize: 0x20 }
  - { offsetInCU: 0x1B269, offset: 0x1B269, size: 0x8, addend: 0x0, symName: __ZNKSt3__16vectorIN2sf6VertexENS_9allocatorIS2_EEE8max_sizeEv, symObjAddr: 0x1B90, symBinAddr: 0x100005850, symSize: 0x60 }
  - { offsetInCU: 0x1B291, offset: 0x1B291, size: 0x8, addend: 0x0, symName: __ZNKSt3__16vectorIN2sf6VertexENS_9allocatorIS2_EEE20__throw_length_errorB7v160006Ev, symObjAddr: 0x1BF0, symBinAddr: 0x1000058B0, symSize: 0x20 }
  - { offsetInCU: 0x1B2B7, offset: 0x1B2B7, size: 0x8, addend: 0x0, symName: __ZNSt3__16vectorIN2sf6VertexENS_9allocatorIS2_EEE7__allocB7v160006Ev, symObjAddr: 0x1C50, symBinAddr: 0x100005910, symSize: 0x20 }
  - { offsetInCU: 0x1B2DD, offset: 0x1B2DD, size: 0x8, addend: 0x0, symName: __ZNSt3__16vectorIN2sf6VertexENS_9allocatorIS2_EEE9__end_capB7v160006Ev, symObjAddr: 0x1C70, symBinAddr: 0x100005930, symSize: 0x20 }
  - { offsetInCU: 0x1B303, offset: 0x1B303, size: 0x8, addend: 0x0, symName: __ZNKSt3__16vectorIN2sf6VertexENS_9allocatorIS2_EEE14__annotate_newB7v160006Em, symObjAddr: 0x1C90, symBinAddr: 0x100005950, symSize: 0xA0 }
  - { offsetInCU: 0x1B338, offset: 0x1B338, size: 0x8, addend: 0x0, symName: __ZNSt3__116allocator_traitsINS_9allocatorIN2sf6VertexEEEE8max_sizeB7v160006IS4_vEEmRKS4_, symObjAddr: 0x1D60, symBinAddr: 0x100005A20, symSize: 0x20 }
  - { offsetInCU: 0x1B366, offset: 0x1B366, size: 0x8, addend: 0x0, symName: __ZNSt3__114numeric_limitsIlE3maxB7v160006Ev, symObjAddr: 0x1D80, symBinAddr: 0x100005A40, symSize: 0x10 }
  - { offsetInCU: 0x1B384, offset: 0x1B384, size: 0x8, addend: 0x0, symName: __ZNKSt3__16__lessImmEclB7v160006ERKmS3_, symObjAddr: 0x1DE0, symBinAddr: 0x100005AA0, symSize: 0x30 }
  - { offsetInCU: 0x1B3C6, offset: 0x1B3C6, size: 0x8, addend: 0x0, symName: __ZNKSt3__19allocatorIN2sf6VertexEE8max_sizeB7v160006Ev, symObjAddr: 0x1E10, symBinAddr: 0x100005AD0, symSize: 0x20 }
  - { offsetInCU: 0x1B3EC, offset: 0x1B3EC, size: 0x8, addend: 0x0, symName: __ZNSt3__123__libcpp_numeric_limitsIlLb1EE3maxB7v160006Ev, symObjAddr: 0x1E30, symBinAddr: 0x100005AF0, symSize: 0x10 }
  - { offsetInCU: 0x1B400, offset: 0x1B400, size: 0x8, addend: 0x0, symName: __ZNSt12length_errorC1B7v160006EPKc, symObjAddr: 0x1EB0, symBinAddr: 0x100005B70, symSize: 0x30 }
  - { offsetInCU: 0x1B438, offset: 0x1B438, size: 0x8, addend: 0x0, symName: __ZNSt12length_errorC2B7v160006EPKc, symObjAddr: 0x1EE0, symBinAddr: 0x100005BA0, symSize: 0x40 }
  - { offsetInCU: 0x1B470, offset: 0x1B470, size: 0x8, addend: 0x0, symName: __ZNSt3__19allocatorIN2sf6VertexEE8allocateB7v160006Em, symObjAddr: 0x1F20, symBinAddr: 0x100005BE0, symSize: 0x50 }
  - { offsetInCU: 0x1B4A4, offset: 0x1B4A4, size: 0x8, addend: 0x0, symName: __ZNSt3__117__compressed_pairIPN2sf6VertexENS_9allocatorIS2_EEE6secondB7v160006Ev, symObjAddr: 0x2080, symBinAddr: 0x100005D40, symSize: 0x20 }
  - { offsetInCU: 0x1B4CA, offset: 0x1B4CA, size: 0x8, addend: 0x0, symName: __ZNSt3__122__compressed_pair_elemINS_9allocatorIN2sf6VertexEEELi1ELb1EE5__getB7v160006Ev, symObjAddr: 0x20A0, symBinAddr: 0x100005D60, symSize: 0x10 }
  - { offsetInCU: 0x1B4F0, offset: 0x1B4F0, size: 0x8, addend: 0x0, symName: __ZNSt3__117__compressed_pairIPN2sf6VertexENS_9allocatorIS2_EEE5firstB7v160006Ev, symObjAddr: 0x20B0, symBinAddr: 0x100005D70, symSize: 0x20 }
  - { offsetInCU: 0x1B516, offset: 0x1B516, size: 0x8, addend: 0x0, symName: __ZNSt3__122__compressed_pair_elemIPN2sf6VertexELi0ELb0EE5__getB7v160006Ev, symObjAddr: 0x20D0, symBinAddr: 0x100005D90, symSize: 0x10 }
  - { offsetInCU: 0x1B53C, offset: 0x1B53C, size: 0x8, addend: 0x0, symName: __ZNKSt3__16vectorIN2sf6VertexENS_9allocatorIS2_EEE31__annotate_contiguous_containerB7v160006EPKvS7_S7_S7_, symObjAddr: 0x20E0, symBinAddr: 0x100005DA0, symSize: 0x20 }
  - { offsetInCU: 0x1B58E, offset: 0x1B58E, size: 0x8, addend: 0x0, symName: __ZNKSt3__16vectorIN2sf6VertexENS_9allocatorIS2_EEE4dataB7v160006Ev, symObjAddr: 0x2100, symBinAddr: 0x100005DC0, symSize: 0x20 }
  - { offsetInCU: 0x1B5B4, offset: 0x1B5B4, size: 0x8, addend: 0x0, symName: __ZNKSt3__16vectorIN2sf6VertexENS_9allocatorIS2_EEE8capacityB7v160006Ev, symObjAddr: 0x2120, symBinAddr: 0x100005DE0, symSize: 0x40 }
  - { offsetInCU: 0x1B5DA, offset: 0x1B5DA, size: 0x8, addend: 0x0, symName: __ZNKSt3__16vectorIN2sf6VertexENS_9allocatorIS2_EEE9__end_capB7v160006Ev, symObjAddr: 0x2170, symBinAddr: 0x100005E30, symSize: 0x20 }
  - { offsetInCU: 0x1B600, offset: 0x1B600, size: 0x8, addend: 0x0, symName: __ZNKSt3__117__compressed_pairIPN2sf6VertexENS_9allocatorIS2_EEE5firstB7v160006Ev, symObjAddr: 0x2190, symBinAddr: 0x100005E50, symSize: 0x20 }
  - { offsetInCU: 0x1B626, offset: 0x1B626, size: 0x8, addend: 0x0, symName: __ZNKSt3__122__compressed_pair_elemIPN2sf6VertexELi0ELb0EE5__getB7v160006Ev, symObjAddr: 0x21B0, symBinAddr: 0x100005E70, symSize: 0x10 }
  - { offsetInCU: 0x1B665, offset: 0x1B665, size: 0x8, addend: 0x0, symName: __ZNSt3__16vectorIN2sf6VertexENS_9allocatorIS2_EEE21_ConstructTransactionC1B7v160006ERS5_m, symObjAddr: 0x21C0, symBinAddr: 0x100005E80, symSize: 0x30 }
  - { offsetInCU: 0x1B6AD, offset: 0x1B6AD, size: 0x8, addend: 0x0, symName: __ZNSt3__16vectorIN2sf6VertexENS_9allocatorIS2_EEE21_ConstructTransactionD1B7v160006Ev, symObjAddr: 0x22F0, symBinAddr: 0x100005FB0, symSize: 0x20 }
  - { offsetInCU: 0x1B6D7, offset: 0x1B6D7, size: 0x8, addend: 0x0, symName: __ZNSt3__16vectorIN2sf6VertexENS_9allocatorIS2_EEE21_ConstructTransactionC2B7v160006ERS5_m, symObjAddr: 0x2310, symBinAddr: 0x100005FD0, symSize: 0x40 }
  - { offsetInCU: 0x1B71F, offset: 0x1B71F, size: 0x8, addend: 0x0, symName: __ZNSt3__129_AllocatorDestroyRangeReverseINS_9allocatorIN2sf6VertexEEEPS3_EC1B7v160006ERS4_RS5_S8_, symObjAddr: 0x23B0, symBinAddr: 0x100006070, symSize: 0x40 }
  - { offsetInCU: 0x1B776, offset: 0x1B776, size: 0x8, addend: 0x0, symName: __ZNSt3__116allocator_traitsINS_9allocatorIN2sf6VertexEEEE9constructB7v160006IS3_JRS3_EvEEvRS4_PT_DpOT0_, symObjAddr: 0x23F0, symBinAddr: 0x1000060B0, symSize: 0x30 }
  - { offsetInCU: 0x1B7CD, offset: 0x1B7CD, size: 0x8, addend: 0x0, symName: __ZNSt3__128__exception_guard_exceptionsINS_29_AllocatorDestroyRangeReverseINS_9allocatorIN2sf6VertexEEEPS4_EEE10__completeB7v160006Ev, symObjAddr: 0x2420, symBinAddr: 0x1000060E0, symSize: 0x20 }
  - { offsetInCU: 0x1B7F3, offset: 0x1B7F3, size: 0x8, addend: 0x0, symName: __ZNSt3__128__exception_guard_exceptionsINS_29_AllocatorDestroyRangeReverseINS_9allocatorIN2sf6VertexEEEPS4_EEED1B7v160006Ev, symObjAddr: 0x2440, symBinAddr: 0x100006100, symSize: 0x20 }
  - { offsetInCU: 0x1B81D, offset: 0x1B81D, size: 0x8, addend: 0x0, symName: __ZNSt3__128__exception_guard_exceptionsINS_29_AllocatorDestroyRangeReverseINS_9allocatorIN2sf6VertexEEEPS4_EEEC1B7v160006ES7_, symObjAddr: 0x2460, symBinAddr: 0x100006120, symSize: 0x40 }
  - { offsetInCU: 0x1B855, offset: 0x1B855, size: 0x8, addend: 0x0, symName: __ZNSt3__128__exception_guard_exceptionsINS_29_AllocatorDestroyRangeReverseINS_9allocatorIN2sf6VertexEEEPS4_EEEC2B7v160006ES7_, symObjAddr: 0x24A0, symBinAddr: 0x100006160, symSize: 0x30 }
  - { offsetInCU: 0x1B88D, offset: 0x1B88D, size: 0x8, addend: 0x0, symName: __ZNSt3__129_AllocatorDestroyRangeReverseINS_9allocatorIN2sf6VertexEEEPS3_EC2B7v160006ERS4_RS5_S8_, symObjAddr: 0x24D0, symBinAddr: 0x100006190, symSize: 0x40 }
  - { offsetInCU: 0x1B8E4, offset: 0x1B8E4, size: 0x8, addend: 0x0, symName: __ZNSt3__19allocatorIN2sf6VertexEE9constructB7v160006IS2_JRS2_EEEvPT_DpOT0_, symObjAddr: 0x2510, symBinAddr: 0x1000061D0, symSize: 0x30 }
  - { offsetInCU: 0x1B93A, offset: 0x1B93A, size: 0x8, addend: 0x0, symName: __ZNSt3__128__exception_guard_exceptionsINS_29_AllocatorDestroyRangeReverseINS_9allocatorIN2sf6VertexEEEPS4_EEED2B7v160006Ev, symObjAddr: 0x2540, symBinAddr: 0x100006200, symSize: 0x40 }
  - { offsetInCU: 0x1B964, offset: 0x1B964, size: 0x8, addend: 0x0, symName: __ZNKSt3__129_AllocatorDestroyRangeReverseINS_9allocatorIN2sf6VertexEEEPS3_EclB7v160006Ev, symObjAddr: 0x2580, symBinAddr: 0x100006240, symSize: 0x60 }
  - { offsetInCU: 0x1B98A, offset: 0x1B98A, size: 0x8, addend: 0x0, symName: __ZNSt3__116reverse_iteratorIPN2sf6VertexEEC1B7v160006ES3_, symObjAddr: 0x2650, symBinAddr: 0x100006310, symSize: 0x30 }
  - { offsetInCU: 0x1B9C2, offset: 0x1B9C2, size: 0x8, addend: 0x0, symName: __ZNSt3__116allocator_traitsINS_9allocatorIN2sf6VertexEEEE7destroyB7v160006IS3_vEEvRS4_PT_, symObjAddr: 0x26C0, symBinAddr: 0x100006380, symSize: 0x30 }
  - { offsetInCU: 0x1B9FF, offset: 0x1B9FF, size: 0x8, addend: 0x0, symName: __ZNSt3__116reverse_iteratorIPN2sf6VertexEEppB7v160006Ev, symObjAddr: 0x2710, symBinAddr: 0x1000063D0, symSize: 0x20 }
  - { offsetInCU: 0x1BA25, offset: 0x1BA25, size: 0x8, addend: 0x0, symName: __ZNKSt3__116reverse_iteratorIPN2sf6VertexEE4baseB7v160006Ev, symObjAddr: 0x2730, symBinAddr: 0x1000063F0, symSize: 0x20 }
  - { offsetInCU: 0x1BA4B, offset: 0x1BA4B, size: 0x8, addend: 0x0, symName: __ZNSt3__19allocatorIN2sf6VertexEE7destroyB7v160006EPS2_, symObjAddr: 0x2750, symBinAddr: 0x100006410, symSize: 0x10 }
  - { offsetInCU: 0x1BA84, offset: 0x1BA84, size: 0x8, addend: 0x0, symName: __ZNSt3__119__to_address_helperINS_16reverse_iteratorIPN2sf6VertexEEEvE6__callB7v160006ERKS5_, symObjAddr: 0x2760, symBinAddr: 0x100006420, symSize: 0x40 }
  - { offsetInCU: 0x1BAA7, offset: 0x1BAA7, size: 0x8, addend: 0x0, symName: __ZNKSt3__116reverse_iteratorIPN2sf6VertexEEptB7v160006Ev, symObjAddr: 0x27A0, symBinAddr: 0x100006460, symSize: 0x20 }
  - { offsetInCU: 0x1BACD, offset: 0x1BACD, size: 0x8, addend: 0x0, symName: __ZNKSt3__116reverse_iteratorIPN2sf6VertexEEdeB7v160006Ev, symObjAddr: 0x27C0, symBinAddr: 0x100006480, symSize: 0x30 }
  - { offsetInCU: 0x1BB01, offset: 0x1BB01, size: 0x8, addend: 0x0, symName: __ZNSt3__116reverse_iteratorIPN2sf6VertexEEC2B7v160006ES3_, symObjAddr: 0x27F0, symBinAddr: 0x1000064B0, symSize: 0x30 }
  - { offsetInCU: 0x1BB39, offset: 0x1BB39, size: 0x8, addend: 0x0, symName: __ZNSt3__16vectorIN2sf6VertexENS_9allocatorIS2_EEE21_ConstructTransactionD2B7v160006Ev, symObjAddr: 0x2820, symBinAddr: 0x1000064E0, symSize: 0x20 }
  - { offsetInCU: 0x1BB63, offset: 0x1BB63, size: 0x8, addend: 0x0, symName: __ZNSt3__128__exception_guard_exceptionsINS_6vectorIN2sf6VertexENS_9allocatorIS3_EEE16__destroy_vectorEED2B7v160006Ev, symObjAddr: 0x2840, symBinAddr: 0x100006500, symSize: 0x40 }
  - { offsetInCU: 0x1BB8D, offset: 0x1BB8D, size: 0x8, addend: 0x0, symName: __ZNSt3__16vectorIN2sf6VertexENS_9allocatorIS2_EEE16__destroy_vectorclB7v160006Ev, symObjAddr: 0x2880, symBinAddr: 0x100006540, symSize: 0x90 }
  - { offsetInCU: 0x1BBB3, offset: 0x1BBB3, size: 0x8, addend: 0x0, symName: __ZNKSt3__16vectorIN2sf6VertexENS_9allocatorIS2_EEE17__annotate_deleteB7v160006Ev, symObjAddr: 0x2910, symBinAddr: 0x1000065D0, symSize: 0xB0 }
  - { offsetInCU: 0x1BBD9, offset: 0x1BBD9, size: 0x8, addend: 0x0, symName: __ZNSt3__16vectorIN2sf6VertexENS_9allocatorIS2_EEE7__clearB7v160006Ev, symObjAddr: 0x29D0, symBinAddr: 0x100006690, symSize: 0x20 }
  - { offsetInCU: 0x1BBFF, offset: 0x1BBFF, size: 0x8, addend: 0x0, symName: __ZNSt3__116allocator_traitsINS_9allocatorIN2sf6VertexEEEE10deallocateB7v160006ERS4_PS3_m, symObjAddr: 0x29F0, symBinAddr: 0x1000066B0, symSize: 0x30 }
  - { offsetInCU: 0x1BC41, offset: 0x1BC41, size: 0x8, addend: 0x0, symName: __ZNSt3__16vectorIN2sf6VertexENS_9allocatorIS2_EEE22__base_destruct_at_endB7v160006EPS2_, symObjAddr: 0x2A20, symBinAddr: 0x1000066E0, symSize: 0x80 }
  - { offsetInCU: 0x1BC85, offset: 0x1BC85, size: 0x8, addend: 0x0, symName: __ZNSt3__19allocatorIN2sf6VertexEE10deallocateB7v160006EPS2_m, symObjAddr: 0x2AA0, symBinAddr: 0x100006760, symSize: 0x50 }
  - { offsetInCU: 0x1BCC7, offset: 0x1BCC7, size: 0x8, addend: 0x0, symName: __ZN2sf11VertexArrayD2Ev, symObjAddr: 0x2BF0, symBinAddr: 0x1000068B0, symSize: 0x40 }
  - { offsetInCU: 0x1BCF3, offset: 0x1BCF3, size: 0x8, addend: 0x0, symName: __ZNSt3__16vectorIN2sf6VertexENS_9allocatorIS2_EEED1B7v160006Ev, symObjAddr: 0x2C30, symBinAddr: 0x1000068F0, symSize: 0x20 }
  - { offsetInCU: 0x1BD1D, offset: 0x1BD1D, size: 0x8, addend: 0x0, symName: __ZNSt3__16vectorIN2sf6VertexENS_9allocatorIS2_EEED2B7v160006Ev, symObjAddr: 0x2C50, symBinAddr: 0x100006910, symSize: 0x40 }
  - { offsetInCU: 0x1BD47, offset: 0x1BD47, size: 0x8, addend: 0x0, symName: __ZN2sf14RectangleShapeC2ERKS0_, symObjAddr: 0x2C90, symBinAddr: 0x100006950, symSize: 0x60 }
  - { offsetInCU: 0x1BD7C, offset: 0x1BD7C, size: 0x8, addend: 0x0, symName: __ZN8QuadTreeC2E9Rectanglei, symObjAddr: 0x2CF0, symBinAddr: 0x1000069B0, symSize: 0x80 }
  - { offsetInCU: 0x1BDC3, offset: 0x1BDC3, size: 0x8, addend: 0x0, symName: __ZNSt3__16vectorINS_17reference_wrapperI8ParticleEENS_9allocatorIS3_EEEC1B7v160006Ev, symObjAddr: 0x2D70, symBinAddr: 0x100006A30, symSize: 0x20 }
  - { offsetInCU: 0x1BDED, offset: 0x1BDED, size: 0x8, addend: 0x0, symName: __ZNSt3__16vectorINS_17reference_wrapperI8ParticleEENS_9allocatorIS3_EEEC2B7v160006Ev, symObjAddr: 0x2D90, symBinAddr: 0x100006A50, symSize: 0x60 }
  - { offsetInCU: 0x1BE17, offset: 0x1BE17, size: 0x8, addend: 0x0, symName: __ZNSt3__117__compressed_pairIPNS_17reference_wrapperI8ParticleEENS_9allocatorIS3_EEEC1B7v160006IDnNS_18__default_init_tagEEEOT_OT0_, symObjAddr: 0x2DF0, symBinAddr: 0x100006AB0, symSize: 0x30 }
  - { offsetInCU: 0x1BE6F, offset: 0x1BE6F, size: 0x8, addend: 0x0, symName: __ZNSt3__117__compressed_pairIPNS_17reference_wrapperI8ParticleEENS_9allocatorIS3_EEEC2B7v160006IDnNS_18__default_init_tagEEEOT_OT0_, symObjAddr: 0x2E30, symBinAddr: 0x100006AF0, symSize: 0x40 }
  - { offsetInCU: 0x1BEC7, offset: 0x1BEC7, size: 0x8, addend: 0x0, symName: __ZNSt3__122__compressed_pair_elemIPNS_17reference_wrapperI8ParticleEELi0ELb0EEC2B7v160006IDnvEEOT_, symObjAddr: 0x2E70, symBinAddr: 0x100006B30, symSize: 0x20 }
  - { offsetInCU: 0x1BF09, offset: 0x1BF09, size: 0x8, addend: 0x0, symName: __ZNSt3__122__compressed_pair_elemINS_9allocatorINS_17reference_wrapperI8ParticleEEEELi1ELb1EEC2B7v160006ENS_18__default_init_tagE, symObjAddr: 0x2E90, symBinAddr: 0x100006B50, symSize: 0x20 }
  - { offsetInCU: 0x1BF3E, offset: 0x1BF3E, size: 0x8, addend: 0x0, symName: __ZNSt3__19allocatorINS_17reference_wrapperI8ParticleEEEC2B7v160006Ev, symObjAddr: 0x2EB0, symBinAddr: 0x100006B70, symSize: 0x20 }
  - { offsetInCU: 0x1BF68, offset: 0x1BF68, size: 0x8, addend: 0x0, symName: __ZNSt3__116__non_trivial_ifILb1ENS_9allocatorINS_17reference_wrapperI8ParticleEEEEEC2B7v160006Ev, symObjAddr: 0x2ED0, symBinAddr: 0x100006B90, symSize: 0x10 }
  - { offsetInCU: 0x1BF92, offset: 0x1BF92, size: 0x8, addend: 0x0, symName: __ZN9RectangleD2Ev, symObjAddr: 0x2EE0, symBinAddr: 0x100006BA0, symSize: 0x30 }
  - { offsetInCU: 0x1BFBE, offset: 0x1BFBE, size: 0x8, addend: 0x0, symName: __ZN8ParticleC2EN2sf7Vector2IfEE, symObjAddr: 0x2F10, symBinAddr: 0x100006BD0, symSize: 0xF0 }
  - { offsetInCU: 0x1BFF6, offset: 0x1BFF6, size: 0x8, addend: 0x0, symName: __ZN2sf7Vector2IfEC1Ev, symObjAddr: 0x3000, symBinAddr: 0x100006CC0, symSize: 0x20 }
  - { offsetInCU: 0x1C022, offset: 0x1C022, size: 0x8, addend: 0x0, symName: __ZN8Particle11updateCordsEv, symObjAddr: 0x3020, symBinAddr: 0x100006CE0, symSize: 0x50 }
  - { offsetInCU: 0x1C048, offset: 0x1C048, size: 0x8, addend: 0x0, symName: __ZN2sf7Vector2IfEC2Ev, symObjAddr: 0x3070, symBinAddr: 0x100006D30, symSize: 0x20 }
  - { offsetInCU: 0x1C074, offset: 0x1C074, size: 0x8, addend: 0x0, symName: __ZN8ParticleD2Ev, symObjAddr: 0x3090, symBinAddr: 0x100006D50, symSize: 0x20 }
  - { offsetInCU: 0x1C0A0, offset: 0x1C0A0, size: 0x8, addend: 0x0, symName: __ZN9Rectangle8containsE8Particle, symObjAddr: 0x30B0, symBinAddr: 0x100006D70, symSize: 0x130 }
  - { offsetInCU: 0x1C0F1, offset: 0x1C0F1, size: 0x8, addend: 0x0, symName: __ZN8ParticleC1ERKS_, symObjAddr: 0x31E0, symBinAddr: 0x100006EA0, symSize: 0x30 }
  - { offsetInCU: 0x1C126, offset: 0x1C126, size: 0x8, addend: 0x0, symName: __ZNKSt3__16vectorINS_17reference_wrapperI8ParticleEENS_9allocatorIS3_EEE4sizeB7v160006Ev, symObjAddr: 0x3210, symBinAddr: 0x100006ED0, symSize: 0x20 }
  - { offsetInCU: 0x1C14C, offset: 0x1C14C, size: 0x8, addend: 0x0, symName: __ZNSt3__16vectorINS_17reference_wrapperI8ParticleEENS_9allocatorIS3_EEE9push_backB7v160006EOS3_, symObjAddr: 0x3230, symBinAddr: 0x100006EF0, symSize: 0x60 }
  - { offsetInCU: 0x1C188, offset: 0x1C188, size: 0x8, addend: 0x0, symName: __ZNSt3__117reference_wrapperI8ParticleEC1B7v160006IRS1_vEEOT_, symObjAddr: 0x3290, symBinAddr: 0x100006F50, symSize: 0x30 }
  - { offsetInCU: 0x1C1CA, offset: 0x1C1CA, size: 0x8, addend: 0x0, symName: __ZN8QuadTree9subdivideEv, symObjAddr: 0x32C0, symBinAddr: 0x100006F80, symSize: 0x6A0 }
  - { offsetInCU: 0x1C248, offset: 0x1C248, size: 0x8, addend: 0x0, symName: __ZN8ParticleC2ERKS_, symObjAddr: 0x3960, symBinAddr: 0x100007620, symSize: 0x50 }
  - { offsetInCU: 0x1C27D, offset: 0x1C27D, size: 0x8, addend: 0x0, symName: __ZNSt3__16vectorINS_17reference_wrapperI8ParticleEENS_9allocatorIS3_EEE9__end_capB7v160006Ev, symObjAddr: 0x39B0, symBinAddr: 0x100007670, symSize: 0x20 }
  - { offsetInCU: 0x1C2A8, offset: 0x1C2A8, size: 0x8, addend: 0x0, symName: __ZNSt3__16vectorINS_17reference_wrapperI8ParticleEENS_9allocatorIS3_EEE22__construct_one_at_endB7v160006IJS3_EEEvDpOT_, symObjAddr: 0x39D0, symBinAddr: 0x100007690, symSize: 0x90 }
  - { offsetInCU: 0x1C2F7, offset: 0x1C2F7, size: 0x8, addend: 0x0, symName: __ZNSt3__16vectorINS_17reference_wrapperI8ParticleEENS_9allocatorIS3_EEE21__push_back_slow_pathIS3_EEvOT_, symObjAddr: 0x3A60, symBinAddr: 0x100007720, symSize: 0xD0 }
  - { offsetInCU: 0x1C355, offset: 0x1C355, size: 0x8, addend: 0x0, symName: __ZNSt3__117__compressed_pairIPNS_17reference_wrapperI8ParticleEENS_9allocatorIS3_EEE5firstB7v160006Ev, symObjAddr: 0x3B30, symBinAddr: 0x1000077F0, symSize: 0x20 }
  - { offsetInCU: 0x1C37B, offset: 0x1C37B, size: 0x8, addend: 0x0, symName: __ZNSt3__122__compressed_pair_elemIPNS_17reference_wrapperI8ParticleEELi0ELb0EE5__getB7v160006Ev, symObjAddr: 0x3B50, symBinAddr: 0x100007810, symSize: 0x10 }
  - { offsetInCU: 0x1C3BA, offset: 0x1C3BA, size: 0x8, addend: 0x0, symName: __ZNSt3__16vectorINS_17reference_wrapperI8ParticleEENS_9allocatorIS3_EEE21_ConstructTransactionC1B7v160006ERS6_m, symObjAddr: 0x3B60, symBinAddr: 0x100007820, symSize: 0x30 }
  - { offsetInCU: 0x1C402, offset: 0x1C402, size: 0x8, addend: 0x0, symName: __ZNSt3__116allocator_traitsINS_9allocatorINS_17reference_wrapperI8ParticleEEEEE9constructB7v160006IS4_JS4_EvEEvRS5_PT_DpOT0_, symObjAddr: 0x3B90, symBinAddr: 0x100007850, symSize: 0x30 }
  - { offsetInCU: 0x1C459, offset: 0x1C459, size: 0x8, addend: 0x0, symName: __ZNSt3__16vectorINS_17reference_wrapperI8ParticleEENS_9allocatorIS3_EEE7__allocB7v160006Ev, symObjAddr: 0x3BC0, symBinAddr: 0x100007880, symSize: 0x20 }
  - { offsetInCU: 0x1C47F, offset: 0x1C47F, size: 0x8, addend: 0x0, symName: __ZNSt3__16vectorINS_17reference_wrapperI8ParticleEENS_9allocatorIS3_EEE21_ConstructTransactionD1B7v160006Ev, symObjAddr: 0x3BF0, symBinAddr: 0x1000078B0, symSize: 0x20 }
  - { offsetInCU: 0x1C4A9, offset: 0x1C4A9, size: 0x8, addend: 0x0, symName: __ZNSt3__16vectorINS_17reference_wrapperI8ParticleEENS_9allocatorIS3_EEE21_ConstructTransactionC2B7v160006ERS6_m, symObjAddr: 0x3C10, symBinAddr: 0x1000078D0, symSize: 0x40 }
  - { offsetInCU: 0x1C4F1, offset: 0x1C4F1, size: 0x8, addend: 0x0, symName: __ZNSt3__19allocatorINS_17reference_wrapperI8ParticleEEE9constructB7v160006IS3_JS3_EEEvPT_DpOT0_, symObjAddr: 0x3C50, symBinAddr: 0x100007910, symSize: 0x20 }
  - { offsetInCU: 0x1C547, offset: 0x1C547, size: 0x8, addend: 0x0, symName: __ZNSt3__117__compressed_pairIPNS_17reference_wrapperI8ParticleEENS_9allocatorIS3_EEE6secondB7v160006Ev, symObjAddr: 0x3C70, symBinAddr: 0x100007930, symSize: 0x20 }
  - { offsetInCU: 0x1C56D, offset: 0x1C56D, size: 0x8, addend: 0x0, symName: __ZNSt3__122__compressed_pair_elemINS_9allocatorINS_17reference_wrapperI8ParticleEEEELi1ELb1EE5__getB7v160006Ev, symObjAddr: 0x3C90, symBinAddr: 0x100007950, symSize: 0x10 }
  - { offsetInCU: 0x1C593, offset: 0x1C593, size: 0x8, addend: 0x0, symName: __ZNSt3__16vectorINS_17reference_wrapperI8ParticleEENS_9allocatorIS3_EEE21_ConstructTransactionD2B7v160006Ev, symObjAddr: 0x3CA0, symBinAddr: 0x100007960, symSize: 0x20 }
  - { offsetInCU: 0x1C5BD, offset: 0x1C5BD, size: 0x8, addend: 0x0, symName: __ZNKSt3__16vectorINS_17reference_wrapperI8ParticleEENS_9allocatorIS3_EEE11__recommendB7v160006Em, symObjAddr: 0x3CC0, symBinAddr: 0x100007980, symSize: 0xA0 }
  - { offsetInCU: 0x1C612, offset: 0x1C612, size: 0x8, addend: 0x0, symName: __ZNSt3__114__split_bufferINS_17reference_wrapperI8ParticleEERNS_9allocatorIS3_EEEC1EmmS6_, symObjAddr: 0x3D60, symBinAddr: 0x100007A20, symSize: 0x40 }
  - { offsetInCU: 0x1C668, offset: 0x1C668, size: 0x8, addend: 0x0, symName: __ZNSt3__114__split_bufferINS_17reference_wrapperI8ParticleEERNS_9allocatorIS3_EEED1Ev, symObjAddr: 0x3ED0, symBinAddr: 0x100007B90, symSize: 0x20 }
  - { offsetInCU: 0x1C694, offset: 0x1C694, size: 0x8, addend: 0x0, symName: __ZNKSt3__16vectorINS_17reference_wrapperI8ParticleEENS_9allocatorIS3_EEE8max_sizeEv, symObjAddr: 0x3EF0, symBinAddr: 0x100007BB0, symSize: 0x60 }
  - { offsetInCU: 0x1C6BC, offset: 0x1C6BC, size: 0x8, addend: 0x0, symName: __ZNKSt3__16vectorINS_17reference_wrapperI8ParticleEENS_9allocatorIS3_EEE20__throw_length_errorB7v160006Ev, symObjAddr: 0x3F50, symBinAddr: 0x100007C10, symSize: 0x20 }
  - { offsetInCU: 0x1C6E2, offset: 0x1C6E2, size: 0x8, addend: 0x0, symName: __ZNKSt3__16vectorINS_17reference_wrapperI8ParticleEENS_9allocatorIS3_EEE8capacityB7v160006Ev, symObjAddr: 0x3F70, symBinAddr: 0x100007C30, symSize: 0x30 }
  - { offsetInCU: 0x1C712, offset: 0x1C712, size: 0x8, addend: 0x0, symName: __ZNSt3__116allocator_traitsINS_9allocatorINS_17reference_wrapperI8ParticleEEEEE8max_sizeB7v160006IS5_vEEmRKS5_, symObjAddr: 0x3FD0, symBinAddr: 0x100007C90, symSize: 0x20 }
  - { offsetInCU: 0x1C740, offset: 0x1C740, size: 0x8, addend: 0x0, symName: __ZNKSt3__16vectorINS_17reference_wrapperI8ParticleEENS_9allocatorIS3_EEE7__allocB7v160006Ev, symObjAddr: 0x3FF0, symBinAddr: 0x100007CB0, symSize: 0x20 }
  - { offsetInCU: 0x1C766, offset: 0x1C766, size: 0x8, addend: 0x0, symName: __ZNKSt3__19allocatorINS_17reference_wrapperI8ParticleEEE8max_sizeB7v160006Ev, symObjAddr: 0x4010, symBinAddr: 0x100007CD0, symSize: 0x20 }
  - { offsetInCU: 0x1C78C, offset: 0x1C78C, size: 0x8, addend: 0x0, symName: __ZNKSt3__117__compressed_pairIPNS_17reference_wrapperI8ParticleEENS_9allocatorIS3_EEE6secondB7v160006Ev, symObjAddr: 0x4030, symBinAddr: 0x100007CF0, symSize: 0x20 }
  - { offsetInCU: 0x1C7B2, offset: 0x1C7B2, size: 0x8, addend: 0x0, symName: __ZNKSt3__122__compressed_pair_elemINS_9allocatorINS_17reference_wrapperI8ParticleEEEELi1ELb1EE5__getB7v160006Ev, symObjAddr: 0x4050, symBinAddr: 0x100007D10, symSize: 0x10 }
  - { offsetInCU: 0x1C7D8, offset: 0x1C7D8, size: 0x8, addend: 0x0, symName: __ZNKSt3__16vectorINS_17reference_wrapperI8ParticleEENS_9allocatorIS3_EEE9__end_capB7v160006Ev, symObjAddr: 0x4060, symBinAddr: 0x100007D20, symSize: 0x20 }
  - { offsetInCU: 0x1C7FE, offset: 0x1C7FE, size: 0x8, addend: 0x0, symName: __ZNKSt3__117__compressed_pairIPNS_17reference_wrapperI8ParticleEENS_9allocatorIS3_EEE5firstB7v160006Ev, symObjAddr: 0x4080, symBinAddr: 0x100007D40, symSize: 0x20 }
  - { offsetInCU: 0x1C824, offset: 0x1C824, size: 0x8, addend: 0x0, symName: __ZNKSt3__122__compressed_pair_elemIPNS_17reference_wrapperI8ParticleEELi0ELb0EE5__getB7v160006Ev, symObjAddr: 0x40A0, symBinAddr: 0x100007D60, symSize: 0x10 }
  - { offsetInCU: 0x1C84A, offset: 0x1C84A, size: 0x8, addend: 0x0, symName: __ZNSt3__114__split_bufferINS_17reference_wrapperI8ParticleEERNS_9allocatorIS3_EEEC2EmmS6_, symObjAddr: 0x4100, symBinAddr: 0x100007DC0, symSize: 0xD0 }
  - { offsetInCU: 0x1C8BD, offset: 0x1C8BD, size: 0x8, addend: 0x0, symName: __ZNSt3__117__compressed_pairIPNS_17reference_wrapperI8ParticleEERNS_9allocatorIS3_EEEC1B7v160006IDnS7_EEOT_OT0_, symObjAddr: 0x41D0, symBinAddr: 0x100007E90, symSize: 0x30 }
  - { offsetInCU: 0x1C915, offset: 0x1C915, size: 0x8, addend: 0x0, symName: __ZNSt3__114__split_bufferINS_17reference_wrapperI8ParticleEERNS_9allocatorIS3_EEE7__allocB7v160006Ev, symObjAddr: 0x4240, symBinAddr: 0x100007F00, symSize: 0x20 }
  - { offsetInCU: 0x1C93B, offset: 0x1C93B, size: 0x8, addend: 0x0, symName: __ZNSt3__114__split_bufferINS_17reference_wrapperI8ParticleEERNS_9allocatorIS3_EEE9__end_capB7v160006Ev, symObjAddr: 0x4260, symBinAddr: 0x100007F20, symSize: 0x20 }
  - { offsetInCU: 0x1C961, offset: 0x1C961, size: 0x8, addend: 0x0, symName: __ZNSt3__117__compressed_pairIPNS_17reference_wrapperI8ParticleEERNS_9allocatorIS3_EEEC2B7v160006IDnS7_EEOT_OT0_, symObjAddr: 0x4280, symBinAddr: 0x100007F40, symSize: 0x40 }
  - { offsetInCU: 0x1C9B9, offset: 0x1C9B9, size: 0x8, addend: 0x0, symName: __ZNSt3__122__compressed_pair_elemIRNS_9allocatorINS_17reference_wrapperI8ParticleEEEELi1ELb0EEC2B7v160006IS6_vEEOT_, symObjAddr: 0x42C0, symBinAddr: 0x100007F80, symSize: 0x20 }
  - { offsetInCU: 0x1C9FB, offset: 0x1C9FB, size: 0x8, addend: 0x0, symName: __ZNSt3__19allocatorINS_17reference_wrapperI8ParticleEEE8allocateB7v160006Em, symObjAddr: 0x42E0, symBinAddr: 0x100007FA0, symSize: 0x50 }
  - { offsetInCU: 0x1CA2F, offset: 0x1CA2F, size: 0x8, addend: 0x0, symName: __ZNSt3__117__compressed_pairIPNS_17reference_wrapperI8ParticleEERNS_9allocatorIS3_EEE6secondB7v160006Ev, symObjAddr: 0x4330, symBinAddr: 0x100007FF0, symSize: 0x20 }
  - { offsetInCU: 0x1CA55, offset: 0x1CA55, size: 0x8, addend: 0x0, symName: __ZNSt3__122__compressed_pair_elemIRNS_9allocatorINS_17reference_wrapperI8ParticleEEEELi1ELb0EE5__getB7v160006Ev, symObjAddr: 0x4350, symBinAddr: 0x100008010, symSize: 0x20 }
  - { offsetInCU: 0x1CA7B, offset: 0x1CA7B, size: 0x8, addend: 0x0, symName: __ZNSt3__117__compressed_pairIPNS_17reference_wrapperI8ParticleEERNS_9allocatorIS3_EEE5firstB7v160006Ev, symObjAddr: 0x4370, symBinAddr: 0x100008030, symSize: 0x20 }
  - { offsetInCU: 0x1CAA1, offset: 0x1CAA1, size: 0x8, addend: 0x0, symName: __ZNKSt3__16vectorINS_17reference_wrapperI8ParticleEENS_9allocatorIS3_EEE17__annotate_deleteB7v160006Ev, symObjAddr: 0x4390, symBinAddr: 0x100008050, symSize: 0xB0 }
  - { offsetInCU: 0x1CAC7, offset: 0x1CAC7, size: 0x8, addend: 0x0, symName: __ZNSt3__116reverse_iteratorIPNS_17reference_wrapperI8ParticleEEEC1B7v160006ES4_, symObjAddr: 0x44B0, symBinAddr: 0x100008170, symSize: 0x30 }
  - { offsetInCU: 0x1CAFF, offset: 0x1CAFF, size: 0x8, addend: 0x0, symName: __ZNKSt3__116reverse_iteratorIPNS_17reference_wrapperI8ParticleEEE4baseB7v160006Ev, symObjAddr: 0x44E0, symBinAddr: 0x1000081A0, symSize: 0x20 }
  - { offsetInCU: 0x1CB25, offset: 0x1CB25, size: 0x8, addend: 0x0, symName: __ZNKSt3__16vectorINS_17reference_wrapperI8ParticleEENS_9allocatorIS3_EEE14__annotate_newB7v160006Em, symObjAddr: 0x4540, symBinAddr: 0x100008200, symSize: 0xB0 }
  - { offsetInCU: 0x1CB5A, offset: 0x1CB5A, size: 0x8, addend: 0x0, symName: __ZNKSt3__16vectorINS_17reference_wrapperI8ParticleEENS_9allocatorIS3_EEE31__annotate_contiguous_containerB7v160006EPKvS8_S8_S8_, symObjAddr: 0x4600, symBinAddr: 0x1000082C0, symSize: 0x20 }
  - { offsetInCU: 0x1CBAC, offset: 0x1CBAC, size: 0x8, addend: 0x0, symName: __ZNKSt3__16vectorINS_17reference_wrapperI8ParticleEENS_9allocatorIS3_EEE4dataB7v160006Ev, symObjAddr: 0x4620, symBinAddr: 0x1000082E0, symSize: 0x20 }
  - { offsetInCU: 0x1CBF5, offset: 0x1CBF5, size: 0x8, addend: 0x0, symName: __ZNKSt3__111__move_loopINS_17_ClassicAlgPolicyEEclB7v160006INS_16reverse_iteratorIPNS_17reference_wrapperI8ParticleEEEES9_S9_EENS_4pairIT_T1_EESB_T0_SC_, symObjAddr: 0x4A80, symBinAddr: 0x100008740, symSize: 0xA0 }
  - { offsetInCU: 0x1CC60, offset: 0x1CC60, size: 0x8, addend: 0x0, symName: __ZNSt3__18_IterOpsINS_17_ClassicAlgPolicyEE11__iter_moveB7v160006IRNS_16reverse_iteratorIPNS_17reference_wrapperI8ParticleEEEEEENS_9enable_ifIXsr12is_referenceIDTdeclsr3stdE7declvalIRT_EEEEE5valueEDTclsr3stdE4movedeclsr3stdE7declvalISD_EEEEE4typeEOSC_, symObjAddr: 0x4CA0, symBinAddr: 0x100008960, symSize: 0x20 }
  - { offsetInCU: 0x1CC8C, offset: 0x1CC8C, size: 0x8, addend: 0x0, symName: __ZNKSt3__116reverse_iteratorIPNS_17reference_wrapperI8ParticleEEEdeB7v160006Ev, symObjAddr: 0x4CC0, symBinAddr: 0x100008980, symSize: 0x30 }
  - { offsetInCU: 0x1CCC0, offset: 0x1CCC0, size: 0x8, addend: 0x0, symName: __ZNSt3__116reverse_iteratorIPNS_17reference_wrapperI8ParticleEEEppB7v160006Ev, symObjAddr: 0x4CF0, symBinAddr: 0x1000089B0, symSize: 0x20 }
  - { offsetInCU: 0x1CCE6, offset: 0x1CCE6, size: 0x8, addend: 0x0, symName: __ZNSt3__18_IterOpsINS_17_ClassicAlgPolicyEE25__validate_iter_referenceB7v160006IRNS_16reverse_iteratorIPNS_17reference_wrapperI8ParticleEEEEEEvv, symObjAddr: 0x4D10, symBinAddr: 0x1000089D0, symSize: 0x10 }
  - { offsetInCU: 0x1CD04, offset: 0x1CD04, size: 0x8, addend: 0x0, symName: __ZNSt3__118__unwrap_iter_implINS_16reverse_iteratorIPNS_17reference_wrapperI8ParticleEEEELb0EE8__unwrapB7v160006ES6_, symObjAddr: 0x4D20, symBinAddr: 0x1000089E0, symSize: 0x20 }
  - { offsetInCU: 0x1CD2C, offset: 0x1CD2C, size: 0x8, addend: 0x0, symName: __ZNSt3__14pairINS_16reverse_iteratorIPNS_17reference_wrapperI8ParticleEEEES6_EC1B7v160006IS6_S6_LPv0EEEOT_OT0_, symObjAddr: 0x4D40, symBinAddr: 0x100008A00, symSize: 0x30 }
  - { offsetInCU: 0x1CD8A, offset: 0x1CD8A, size: 0x8, addend: 0x0, symName: __ZNSt3__14pairINS_16reverse_iteratorIPNS_17reference_wrapperI8ParticleEEEES6_EC2B7v160006IS6_S6_LPv0EEEOT_OT0_, symObjAddr: 0x4D70, symBinAddr: 0x100008A30, symSize: 0x40 }
  - { offsetInCU: 0x1CDE8, offset: 0x1CDE8, size: 0x8, addend: 0x0, symName: __ZNSt3__118__unwrap_iter_implINS_16reverse_iteratorIPNS_17reference_wrapperI8ParticleEEEELb0EE8__rewrapB7v160006ES6_S6_, symObjAddr: 0x4DB0, symBinAddr: 0x100008A70, symSize: 0x30 }
  - { offsetInCU: 0x1CE16, offset: 0x1CE16, size: 0x8, addend: 0x0, symName: __ZNSt3__116reverse_iteratorIPNS_17reference_wrapperI8ParticleEEEC2B7v160006ES4_, symObjAddr: 0x4DE0, symBinAddr: 0x100008AA0, symSize: 0x30 }
  - { offsetInCU: 0x1CE4E, offset: 0x1CE4E, size: 0x8, addend: 0x0, symName: __ZNSt3__114__split_bufferINS_17reference_wrapperI8ParticleEERNS_9allocatorIS3_EEED2Ev, symObjAddr: 0x4E10, symBinAddr: 0x100008AD0, symSize: 0x70 }
  - { offsetInCU: 0x1CE7A, offset: 0x1CE7A, size: 0x8, addend: 0x0, symName: __ZNSt3__114__split_bufferINS_17reference_wrapperI8ParticleEERNS_9allocatorIS3_EEE5clearB7v160006Ev, symObjAddr: 0x4E80, symBinAddr: 0x100008B40, symSize: 0x20 }
  - { offsetInCU: 0x1CEA0, offset: 0x1CEA0, size: 0x8, addend: 0x0, symName: __ZNSt3__116allocator_traitsINS_9allocatorINS_17reference_wrapperI8ParticleEEEEE10deallocateB7v160006ERS5_PS4_m, symObjAddr: 0x4EA0, symBinAddr: 0x100008B60, symSize: 0x30 }
  - { offsetInCU: 0x1CEE2, offset: 0x1CEE2, size: 0x8, addend: 0x0, symName: __ZNKSt3__114__split_bufferINS_17reference_wrapperI8ParticleEERNS_9allocatorIS3_EEE8capacityB7v160006Ev, symObjAddr: 0x4ED0, symBinAddr: 0x100008B90, symSize: 0x30 }
  - { offsetInCU: 0x1CF08, offset: 0x1CF08, size: 0x8, addend: 0x0, symName: __ZNSt3__114__split_bufferINS_17reference_wrapperI8ParticleEERNS_9allocatorIS3_EEE17__destruct_at_endB7v160006EPS3_, symObjAddr: 0x4F00, symBinAddr: 0x100008BC0, symSize: 0x30 }
  - { offsetInCU: 0x1CF3C, offset: 0x1CF3C, size: 0x8, addend: 0x0, symName: __ZNSt3__114__split_bufferINS_17reference_wrapperI8ParticleEERNS_9allocatorIS3_EEE17__destruct_at_endB7v160006EPS3_NS_17integral_constantIbLb0EEE, symObjAddr: 0x4F30, symBinAddr: 0x100008BF0, symSize: 0x80 }
  - { offsetInCU: 0x1CF7D, offset: 0x1CF7D, size: 0x8, addend: 0x0, symName: __ZNSt3__116allocator_traitsINS_9allocatorINS_17reference_wrapperI8ParticleEEEEE7destroyB7v160006IS4_vEEvRS5_PT_, symObjAddr: 0x4FB0, symBinAddr: 0x100008C70, symSize: 0x30 }
  - { offsetInCU: 0x1CFBA, offset: 0x1CFBA, size: 0x8, addend: 0x0, symName: __ZNSt3__19allocatorINS_17reference_wrapperI8ParticleEEE7destroyB7v160006EPS3_, symObjAddr: 0x4FE0, symBinAddr: 0x100008CA0, symSize: 0x10 }
  - { offsetInCU: 0x1CFEE, offset: 0x1CFEE, size: 0x8, addend: 0x0, symName: __ZNSt3__19allocatorINS_17reference_wrapperI8ParticleEEE10deallocateB7v160006EPS3_m, symObjAddr: 0x4FF0, symBinAddr: 0x100008CB0, symSize: 0x40 }
  - { offsetInCU: 0x1D030, offset: 0x1D030, size: 0x8, addend: 0x0, symName: __ZNKSt3__114__split_bufferINS_17reference_wrapperI8ParticleEERNS_9allocatorIS3_EEE9__end_capB7v160006Ev, symObjAddr: 0x5030, symBinAddr: 0x100008CF0, symSize: 0x20 }
  - { offsetInCU: 0x1D056, offset: 0x1D056, size: 0x8, addend: 0x0, symName: __ZNKSt3__117__compressed_pairIPNS_17reference_wrapperI8ParticleEERNS_9allocatorIS3_EEE5firstB7v160006Ev, symObjAddr: 0x5050, symBinAddr: 0x100008D10, symSize: 0x20 }
  - { offsetInCU: 0x1D07C, offset: 0x1D07C, size: 0x8, addend: 0x0, symName: __ZNSt3__117reference_wrapperI8ParticleEC2B7v160006IRS1_vEEOT_, symObjAddr: 0x5070, symBinAddr: 0x100008D30, symSize: 0x30 }
  - { offsetInCU: 0x1D0DA, offset: 0x1D0DA, size: 0x8, addend: 0x0, symName: __ZN2sf15ContextSettingsC2Ejjjjjjb, symObjAddr: 0x50E0, symBinAddr: 0x100008DA0, symSize: 0x60 }
  - { offsetInCU: 0x1D166, offset: 0x1D166, size: 0x8, addend: 0x0, symName: __ZN2sf6StringD2Ev, symObjAddr: 0x5140, symBinAddr: 0x100008E00, symSize: 0x20 }
  - { offsetInCU: 0x1D192, offset: 0x1D192, size: 0x8, addend: 0x0, symName: __ZNSt3__112basic_stringIjNS_11char_traitsIjEENS_9allocatorIjEEED1Ev, symObjAddr: 0x5160, symBinAddr: 0x100008E20, symSize: 0x20 }
  - { offsetInCU: 0x1D1BE, offset: 0x1D1BE, size: 0x8, addend: 0x0, symName: __ZNSt3__112basic_stringIjNS_11char_traitsIjEENS_9allocatorIjEEED2Ev, symObjAddr: 0x5180, symBinAddr: 0x100008E40, symSize: 0x80 }
  - { offsetInCU: 0x1D1EA, offset: 0x1D1EA, size: 0x8, addend: 0x0, symName: __ZNKSt3__112basic_stringIjNS_11char_traitsIjEENS_9allocatorIjEEE9__is_longB7v160006Ev, symObjAddr: 0x5210, symBinAddr: 0x100008ED0, symSize: 0x30 }
  - { offsetInCU: 0x1D210, offset: 0x1D210, size: 0x8, addend: 0x0, symName: __ZNSt3__116allocator_traitsINS_9allocatorIjEEE10deallocateB7v160006ERS2_Pjm, symObjAddr: 0x5240, symBinAddr: 0x100008F00, symSize: 0x30 }
  - { offsetInCU: 0x1D252, offset: 0x1D252, size: 0x8, addend: 0x0, symName: __ZNSt3__112basic_stringIjNS_11char_traitsIjEENS_9allocatorIjEEE7__allocB7v160006Ev, symObjAddr: 0x5270, symBinAddr: 0x100008F30, symSize: 0x20 }
  - { offsetInCU: 0x1D278, offset: 0x1D278, size: 0x8, addend: 0x0, symName: __ZNSt3__112basic_stringIjNS_11char_traitsIjEENS_9allocatorIjEEE18__get_long_pointerB7v160006Ev, symObjAddr: 0x5290, symBinAddr: 0x100008F50, symSize: 0x20 }
  - { offsetInCU: 0x1D29E, offset: 0x1D29E, size: 0x8, addend: 0x0, symName: __ZNKSt3__112basic_stringIjNS_11char_traitsIjEENS_9allocatorIjEEE14__get_long_capB7v160006Ev, symObjAddr: 0x52B0, symBinAddr: 0x100008F70, symSize: 0x30 }
  - { offsetInCU: 0x1D2C4, offset: 0x1D2C4, size: 0x8, addend: 0x0, symName: __ZNKSt3__117__compressed_pairINS_12basic_stringIjNS_11char_traitsIjEENS_9allocatorIjEEE5__repES5_E5firstB7v160006Ev, symObjAddr: 0x52E0, symBinAddr: 0x100008FA0, symSize: 0x20 }
  - { offsetInCU: 0x1D2EA, offset: 0x1D2EA, size: 0x8, addend: 0x0, symName: __ZNKSt3__122__compressed_pair_elemINS_12basic_stringIjNS_11char_traitsIjEENS_9allocatorIjEEE5__repELi0ELb0EE5__getB7v160006Ev, symObjAddr: 0x5300, symBinAddr: 0x100008FC0, symSize: 0x10 }
  - { offsetInCU: 0x1D310, offset: 0x1D310, size: 0x8, addend: 0x0, symName: __ZNSt3__19allocatorIjE10deallocateB7v160006EPjm, symObjAddr: 0x5310, symBinAddr: 0x100008FD0, symSize: 0x40 }
  - { offsetInCU: 0x1D352, offset: 0x1D352, size: 0x8, addend: 0x0, symName: __ZNSt3__117__compressed_pairINS_12basic_stringIjNS_11char_traitsIjEENS_9allocatorIjEEE5__repES5_E6secondB7v160006Ev, symObjAddr: 0x5350, symBinAddr: 0x100009010, symSize: 0x20 }
  - { offsetInCU: 0x1D378, offset: 0x1D378, size: 0x8, addend: 0x0, symName: __ZNSt3__122__compressed_pair_elemINS_9allocatorIjEELi1ELb1EE5__getB7v160006Ev, symObjAddr: 0x5370, symBinAddr: 0x100009030, symSize: 0x10 }
  - { offsetInCU: 0x1D39E, offset: 0x1D39E, size: 0x8, addend: 0x0, symName: __ZNSt3__117__compressed_pairINS_12basic_stringIjNS_11char_traitsIjEENS_9allocatorIjEEE5__repES5_E5firstB7v160006Ev, symObjAddr: 0x5380, symBinAddr: 0x100009040, symSize: 0x20 }
  - { offsetInCU: 0x1D3C4, offset: 0x1D3C4, size: 0x8, addend: 0x0, symName: __ZNSt3__122__compressed_pair_elemINS_12basic_stringIjNS_11char_traitsIjEENS_9allocatorIjEEE5__repELi0ELb0EE5__getB7v160006Ev, symObjAddr: 0x53A0, symBinAddr: 0x100009060, symSize: 0x10 }
  - { offsetInCU: 0x1D3EA, offset: 0x1D3EA, size: 0x8, addend: 0x0, symName: __ZN9Rectangle4drawERN2sf12RenderWindowE, symObjAddr: 0x53B0, symBinAddr: 0x100009070, symSize: 0x60 }
  - { offsetInCU: 0x1D41E, offset: 0x1D41E, size: 0x8, addend: 0x0, symName: __ZN8QuadTreeD2Ev, symObjAddr: 0x5410, symBinAddr: 0x1000090D0, symSize: 0xE0 }
  - { offsetInCU: 0x1D448, offset: 0x1D448, size: 0x8, addend: 0x0, symName: __ZNSt3__16vectorINS_17reference_wrapperI8ParticleEENS_9allocatorIS3_EEED1B7v160006Ev, symObjAddr: 0x54F0, symBinAddr: 0x1000091B0, symSize: 0x20 }
  - { offsetInCU: 0x1D472, offset: 0x1D472, size: 0x8, addend: 0x0, symName: __ZNSt3__16vectorINS_17reference_wrapperI8ParticleEENS_9allocatorIS3_EEED2B7v160006Ev, symObjAddr: 0x5510, symBinAddr: 0x1000091D0, symSize: 0x40 }
  - { offsetInCU: 0x1D49C, offset: 0x1D49C, size: 0x8, addend: 0x0, symName: __ZNSt3__16vectorINS_17reference_wrapperI8ParticleEENS_9allocatorIS3_EEE16__destroy_vectorC1ERS6_, symObjAddr: 0x5550, symBinAddr: 0x100009210, symSize: 0x30 }
  - { offsetInCU: 0x1D4D5, offset: 0x1D4D5, size: 0x8, addend: 0x0, symName: __ZNSt3__16vectorINS_17reference_wrapperI8ParticleEENS_9allocatorIS3_EEE16__destroy_vectorclB7v160006Ev, symObjAddr: 0x5580, symBinAddr: 0x100009240, symSize: 0x90 }
  - { offsetInCU: 0x1D4FB, offset: 0x1D4FB, size: 0x8, addend: 0x0, symName: __ZNSt3__16vectorINS_17reference_wrapperI8ParticleEENS_9allocatorIS3_EEE16__destroy_vectorC2ERS6_, symObjAddr: 0x5610, symBinAddr: 0x1000092D0, symSize: 0x20 }
  - { offsetInCU: 0x1D534, offset: 0x1D534, size: 0x8, addend: 0x0, symName: __ZNSt3__16vectorINS_17reference_wrapperI8ParticleEENS_9allocatorIS3_EEE7__clearB7v160006Ev, symObjAddr: 0x5640, symBinAddr: 0x100009300, symSize: 0x20 }
  - { offsetInCU: 0x1D55A, offset: 0x1D55A, size: 0x8, addend: 0x0, symName: __ZNSt3__16vectorINS_17reference_wrapperI8ParticleEENS_9allocatorIS3_EEE22__base_destruct_at_endB7v160006EPS3_, symObjAddr: 0x5660, symBinAddr: 0x100009320, symSize: 0x80 }
  - { offsetInCU: 0x1D59E, offset: 0x1D59E, size: 0x8, addend: 0x0, symName: __ZNSt3__123mersenne_twister_engineIjLm32ELm624ELm397ELm31ELj2567483615ELm11ELj4294967295ELm7ELj2636928640ELm15ELj4022730752ELm18ELj1812433253EEC2B7v160006Ej, symObjAddr: 0x56E0, symBinAddr: 0x1000093A0, symSize: 0x30 }
  - { offsetInCU: 0x1D5D6, offset: 0x1D5D6, size: 0x8, addend: 0x0, symName: __ZNSt3__123mersenne_twister_engineIjLm32ELm624ELm397ELm31ELj2567483615ELm11ELj4294967295ELm7ELj2636928640ELm15ELj4022730752ELm18ELj1812433253EE4seedEj, symObjAddr: 0x5710, symBinAddr: 0x1000093D0, symSize: 0xB0 }
  - { offsetInCU: 0x1D629, offset: 0x1D629, size: 0x8, addend: 0x0, symName: __ZNSt3__123mersenne_twister_engineIjLm32ELm624ELm397ELm31ELj2567483615ELm11ELj4294967295ELm7ELj2636928640ELm15ELj4022730752ELm18ELj1812433253EE8__rshiftB7v160006ILm30EEENS_9enable_ifIXltT_L_ZNS1_3_DtEEEjE4typeEj, symObjAddr: 0x57C0, symBinAddr: 0x100009480, symSize: 0x10 }
  - { offsetInCU: 0x1D656, offset: 0x1D656, size: 0x8, addend: 0x0, symName: __ZNSt3__124uniform_int_distributionIiEC2Eii, symObjAddr: 0x57D0, symBinAddr: 0x100009490, symSize: 0x30 }
  - { offsetInCU: 0x1D69C, offset: 0x1D69C, size: 0x8, addend: 0x0, symName: __ZNSt3__124uniform_int_distributionIiE10param_typeC1Eii, symObjAddr: 0x5800, symBinAddr: 0x1000094C0, symSize: 0x30 }
  - { offsetInCU: 0x1D6E2, offset: 0x1D6E2, size: 0x8, addend: 0x0, symName: __ZNSt3__124uniform_int_distributionIiE10param_typeC2Eii, symObjAddr: 0x5830, symBinAddr: 0x1000094F0, symSize: 0x20 }
  - { offsetInCU: 0x1D728, offset: 0x1D728, size: 0x8, addend: 0x0, symName: __ZNKSt3__124uniform_int_distributionIiE10param_type1bEv, symObjAddr: 0x59A0, symBinAddr: 0x100009660, symSize: 0x20 }
  - { offsetInCU: 0x1D74E, offset: 0x1D74E, size: 0x8, addend: 0x0, symName: __ZNKSt3__124uniform_int_distributionIiE10param_type1aEv, symObjAddr: 0x59C0, symBinAddr: 0x100009680, symSize: 0x10 }
  - { offsetInCU: 0x1D774, offset: 0x1D774, size: 0x8, addend: 0x0, symName: __ZNSt3__125__independent_bits_engineINS_23mersenne_twister_engineIjLm32ELm624ELm397ELm31ELj2567483615ELm11ELj4294967295ELm7ELj2636928640ELm15ELj4022730752ELm18ELj1812433253EEEjEC1ERS2_m, symObjAddr: 0x59D0, symBinAddr: 0x100009690, symSize: 0x30 }
  - { offsetInCU: 0x1D7BB, offset: 0x1D7BB, size: 0x8, addend: 0x0, symName: __ZNSt3__125__independent_bits_engineINS_23mersenne_twister_engineIjLm32ELm624ELm397ELm31ELj2567483615ELm11ELj4294967295ELm7ELj2636928640ELm15ELj4022730752ELm18ELj1812433253EEEjEclEv, symObjAddr: 0x5A00, symBinAddr: 0x1000096C0, symSize: 0x20 }
  - { offsetInCU: 0x1D7E1, offset: 0x1D7E1, size: 0x8, addend: 0x0, symName: __ZNSt3__114numeric_limitsIjE3maxB7v160006Ev, symObjAddr: 0x5A60, symBinAddr: 0x100009720, symSize: 0x10 }
  - { offsetInCU: 0x1D7F5, offset: 0x1D7F5, size: 0x8, addend: 0x0, symName: __ZNSt3__125__independent_bits_engineINS_23mersenne_twister_engineIjLm32ELm624ELm397ELm31ELj2567483615ELm11ELj4294967295ELm7ELj2636928640ELm15ELj4022730752ELm18ELj1812433253EEEjEC2ERS2_m, symObjAddr: 0x5A70, symBinAddr: 0x100009730, symSize: 0x1D0 }
  - { offsetInCU: 0x1D83C, offset: 0x1D83C, size: 0x8, addend: 0x0, symName: __ZNSt3__125__independent_bits_engineINS_23mersenne_twister_engineIjLm32ELm624ELm397ELm31ELj2567483615ELm11ELj4294967295ELm7ELj2636928640ELm15ELj4022730752ELm18ELj1812433253EEEjE6__evalENS_17integral_constantIbLb0EEE, symObjAddr: 0x5C40, symBinAddr: 0x100009900, symSize: 0x30 }
  - { offsetInCU: 0x1D86E, offset: 0x1D86E, size: 0x8, addend: 0x0, symName: __ZNSt3__123mersenne_twister_engineIjLm32ELm624ELm397ELm31ELj2567483615ELm11ELj4294967295ELm7ELj2636928640ELm15ELj4022730752ELm18ELj1812433253EEclEv, symObjAddr: 0x5C70, symBinAddr: 0x100009930, symSize: 0x130 }
  - { offsetInCU: 0x1D8E1, offset: 0x1D8E1, size: 0x8, addend: 0x0, symName: __ZNSt3__123mersenne_twister_engineIjLm32ELm624ELm397ELm31ELj2567483615ELm11ELj4294967295ELm7ELj2636928640ELm15ELj4022730752ELm18ELj1812433253EE8__rshiftB7v160006ILm1EEENS_9enable_ifIXltT_L_ZNS1_3_DtEEEjE4typeEj, symObjAddr: 0x5DA0, symBinAddr: 0x100009A60, symSize: 0x10 }
  - { offsetInCU: 0x1D90E, offset: 0x1D90E, size: 0x8, addend: 0x0, symName: __ZNSt3__123mersenne_twister_engineIjLm32ELm624ELm397ELm31ELj2567483615ELm11ELj4294967295ELm7ELj2636928640ELm15ELj4022730752ELm18ELj1812433253EE8__rshiftB7v160006ILm11EEENS_9enable_ifIXltT_L_ZNS1_3_DtEEEjE4typeEj, symObjAddr: 0x5DB0, symBinAddr: 0x100009A70, symSize: 0x10 }
  - { offsetInCU: 0x1D93B, offset: 0x1D93B, size: 0x8, addend: 0x0, symName: __ZNSt3__123mersenne_twister_engineIjLm32ELm624ELm397ELm31ELj2567483615ELm11ELj4294967295ELm7ELj2636928640ELm15ELj4022730752ELm18ELj1812433253EE8__lshiftB7v160006ILm7EEENS_9enable_ifIXltT_Lm32EEjE4typeEj, symObjAddr: 0x5DC0, symBinAddr: 0x100009A80, symSize: 0x20 }
  - { offsetInCU: 0x1D968, offset: 0x1D968, size: 0x8, addend: 0x0, symName: __ZNSt3__123mersenne_twister_engineIjLm32ELm624ELm397ELm31ELj2567483615ELm11ELj4294967295ELm7ELj2636928640ELm15ELj4022730752ELm18ELj1812433253EE8__lshiftB7v160006ILm15EEENS_9enable_ifIXltT_Lm32EEjE4typeEj, symObjAddr: 0x5DE0, symBinAddr: 0x100009AA0, symSize: 0x20 }
  - { offsetInCU: 0x1D995, offset: 0x1D995, size: 0x8, addend: 0x0, symName: __ZNSt3__123mersenne_twister_engineIjLm32ELm624ELm397ELm31ELj2567483615ELm11ELj4294967295ELm7ELj2636928640ELm15ELj4022730752ELm18ELj1812433253EE8__rshiftB7v160006ILm18EEENS_9enable_ifIXltT_L_ZNS1_3_DtEEEjE4typeEj, symObjAddr: 0x5E00, symBinAddr: 0x100009AC0, symSize: 0x10 }
  - { offsetInCU: 0x1D9C2, offset: 0x1D9C2, size: 0x8, addend: 0x0, symName: __ZNSt3__123__libcpp_numeric_limitsIjLb1EE3maxB7v160006Ev, symObjAddr: 0x5E30, symBinAddr: 0x100009AF0, symSize: 0x10 }
  - { offsetInCU: 0x1D9D6, offset: 0x1D9D6, size: 0x8, addend: 0x0, symName: __ZN2sf7Vector2IfEC2Eff, symObjAddr: 0x5E40, symBinAddr: 0x100009B00, symSize: 0x30 }
  - { offsetInCU: 0x1DA1E, offset: 0x1DA1E, size: 0x8, addend: 0x0, symName: __ZNSt3__16vectorI8ParticleNS_9allocatorIS1_EEEC2B7v160006Ev, symObjAddr: 0x5E70, symBinAddr: 0x100009B30, symSize: 0x60 }
  - { offsetInCU: 0x1DA48, offset: 0x1DA48, size: 0x8, addend: 0x0, symName: __ZNSt3__117__compressed_pairIP8ParticleNS_9allocatorIS1_EEEC1B7v160006IDnNS_18__default_init_tagEEEOT_OT0_, symObjAddr: 0x5ED0, symBinAddr: 0x100009B90, symSize: 0x30 }
  - { offsetInCU: 0x1DAA0, offset: 0x1DAA0, size: 0x8, addend: 0x0, symName: __ZNSt3__117__compressed_pairIP8ParticleNS_9allocatorIS1_EEEC2B7v160006IDnNS_18__default_init_tagEEEOT_OT0_, symObjAddr: 0x5F10, symBinAddr: 0x100009BD0, symSize: 0x40 }
  - { offsetInCU: 0x1DAF8, offset: 0x1DAF8, size: 0x8, addend: 0x0, symName: __ZNSt3__122__compressed_pair_elemIP8ParticleLi0ELb0EEC2B7v160006IDnvEEOT_, symObjAddr: 0x5F50, symBinAddr: 0x100009C10, symSize: 0x20 }
  - { offsetInCU: 0x1DB3A, offset: 0x1DB3A, size: 0x8, addend: 0x0, symName: __ZNSt3__122__compressed_pair_elemINS_9allocatorI8ParticleEELi1ELb1EEC2B7v160006ENS_18__default_init_tagE, symObjAddr: 0x5F70, symBinAddr: 0x100009C30, symSize: 0x20 }
  - { offsetInCU: 0x1DB6F, offset: 0x1DB6F, size: 0x8, addend: 0x0, symName: __ZNSt3__19allocatorI8ParticleEC2B7v160006Ev, symObjAddr: 0x5F90, symBinAddr: 0x100009C50, symSize: 0x20 }
  - { offsetInCU: 0x1DB99, offset: 0x1DB99, size: 0x8, addend: 0x0, symName: __ZNSt3__116__non_trivial_ifILb1ENS_9allocatorI8ParticleEEEC2B7v160006Ev, symObjAddr: 0x5FB0, symBinAddr: 0x100009C70, symSize: 0x10 }
  - { offsetInCU: 0x1DBC3, offset: 0x1DBC3, size: 0x8, addend: 0x0, symName: __ZNSt3__16vectorI8ParticleNS_9allocatorIS1_EEED2B7v160006Ev, symObjAddr: 0x5FC0, symBinAddr: 0x100009C80, symSize: 0x40 }
  - { offsetInCU: 0x1DBED, offset: 0x1DBED, size: 0x8, addend: 0x0, symName: __ZNSt3__16vectorI8ParticleNS_9allocatorIS1_EEE16__destroy_vectorC1ERS4_, symObjAddr: 0x6000, symBinAddr: 0x100009CC0, symSize: 0x30 }
  - { offsetInCU: 0x1DC26, offset: 0x1DC26, size: 0x8, addend: 0x0, symName: __ZNSt3__16vectorI8ParticleNS_9allocatorIS1_EEE16__destroy_vectorclB7v160006Ev, symObjAddr: 0x6030, symBinAddr: 0x100009CF0, symSize: 0x90 }
  - { offsetInCU: 0x1DC4C, offset: 0x1DC4C, size: 0x8, addend: 0x0, symName: __ZNSt3__16vectorI8ParticleNS_9allocatorIS1_EEE16__destroy_vectorC2ERS4_, symObjAddr: 0x60C0, symBinAddr: 0x100009D80, symSize: 0x20 }
  - { offsetInCU: 0x1DC85, offset: 0x1DC85, size: 0x8, addend: 0x0, symName: __ZNKSt3__16vectorI8ParticleNS_9allocatorIS1_EEE17__annotate_deleteB7v160006Ev, symObjAddr: 0x60E0, symBinAddr: 0x100009DA0, symSize: 0xC0 }
  - { offsetInCU: 0x1DCAB, offset: 0x1DCAB, size: 0x8, addend: 0x0, symName: __ZNSt3__16vectorI8ParticleNS_9allocatorIS1_EEE7__clearB7v160006Ev, symObjAddr: 0x61B0, symBinAddr: 0x100009E70, symSize: 0x20 }
  - { offsetInCU: 0x1DCD1, offset: 0x1DCD1, size: 0x8, addend: 0x0, symName: __ZNSt3__116allocator_traitsINS_9allocatorI8ParticleEEE10deallocateB7v160006ERS3_PS2_m, symObjAddr: 0x61D0, symBinAddr: 0x100009E90, symSize: 0x30 }
  - { offsetInCU: 0x1DD13, offset: 0x1DD13, size: 0x8, addend: 0x0, symName: __ZNSt3__16vectorI8ParticleNS_9allocatorIS1_EEE7__allocB7v160006Ev, symObjAddr: 0x6200, symBinAddr: 0x100009EC0, symSize: 0x20 }
  - { offsetInCU: 0x1DD39, offset: 0x1DD39, size: 0x8, addend: 0x0, symName: __ZNKSt3__16vectorI8ParticleNS_9allocatorIS1_EEE8capacityB7v160006Ev, symObjAddr: 0x6220, symBinAddr: 0x100009EE0, symSize: 0x40 }
  - { offsetInCU: 0x1DD5F, offset: 0x1DD5F, size: 0x8, addend: 0x0, symName: __ZNKSt3__16vectorI8ParticleNS_9allocatorIS1_EEE31__annotate_contiguous_containerB7v160006EPKvS6_S6_S6_, symObjAddr: 0x6260, symBinAddr: 0x100009F20, symSize: 0x20 }
  - { offsetInCU: 0x1DDB1, offset: 0x1DDB1, size: 0x8, addend: 0x0, symName: __ZNKSt3__16vectorI8ParticleNS_9allocatorIS1_EEE4dataB7v160006Ev, symObjAddr: 0x6280, symBinAddr: 0x100009F40, symSize: 0x20 }
  - { offsetInCU: 0x1DDD7, offset: 0x1DDD7, size: 0x8, addend: 0x0, symName: __ZNSt3__16vectorI8ParticleNS_9allocatorIS1_EEE22__base_destruct_at_endB7v160006EPS1_, symObjAddr: 0x62B0, symBinAddr: 0x100009F70, symSize: 0x80 }
  - { offsetInCU: 0x1DE1B, offset: 0x1DE1B, size: 0x8, addend: 0x0, symName: __ZNSt3__116allocator_traitsINS_9allocatorI8ParticleEEE7destroyB7v160006IS2_vEEvRS3_PT_, symObjAddr: 0x6330, symBinAddr: 0x100009FF0, symSize: 0x30 }
  - { offsetInCU: 0x1DE58, offset: 0x1DE58, size: 0x8, addend: 0x0, symName: __ZNSt3__19allocatorI8ParticleE7destroyB7v160006EPS1_, symObjAddr: 0x6360, symBinAddr: 0x10000A020, symSize: 0x20 }
  - { offsetInCU: 0x1DE8C, offset: 0x1DE8C, size: 0x8, addend: 0x0, symName: __ZNSt3__19allocatorI8ParticleE10deallocateB7v160006EPS1_m, symObjAddr: 0x6380, symBinAddr: 0x10000A040, symSize: 0x40 }
  - { offsetInCU: 0x1DECE, offset: 0x1DECE, size: 0x8, addend: 0x0, symName: __ZNSt3__117__compressed_pairIP8ParticleNS_9allocatorIS1_EEE6secondB7v160006Ev, symObjAddr: 0x63C0, symBinAddr: 0x10000A080, symSize: 0x20 }
  - { offsetInCU: 0x1DEF4, offset: 0x1DEF4, size: 0x8, addend: 0x0, symName: __ZNSt3__122__compressed_pair_elemINS_9allocatorI8ParticleEELi1ELb1EE5__getB7v160006Ev, symObjAddr: 0x63E0, symBinAddr: 0x10000A0A0, symSize: 0x10 }
  - { offsetInCU: 0x1DF1A, offset: 0x1DF1A, size: 0x8, addend: 0x0, symName: __ZNKSt3__16vectorI8ParticleNS_9allocatorIS1_EEE9__end_capB7v160006Ev, symObjAddr: 0x63F0, symBinAddr: 0x10000A0B0, symSize: 0x20 }
  - { offsetInCU: 0x1DF40, offset: 0x1DF40, size: 0x8, addend: 0x0, symName: __ZNKSt3__117__compressed_pairIP8ParticleNS_9allocatorIS1_EEE5firstB7v160006Ev, symObjAddr: 0x6410, symBinAddr: 0x10000A0D0, symSize: 0x20 }
  - { offsetInCU: 0x1DF66, offset: 0x1DF66, size: 0x8, addend: 0x0, symName: __ZNKSt3__122__compressed_pair_elemIP8ParticleLi0ELb0EE5__getB7v160006Ev, symObjAddr: 0x6430, symBinAddr: 0x10000A0F0, symSize: 0x10 }
  - { offsetInCU: 0x1DF8C, offset: 0x1DF8C, size: 0x8, addend: 0x0, symName: __ZNSt3__16vectorI8ParticleNS_9allocatorIS1_EEE9__end_capB7v160006Ev, symObjAddr: 0x6440, symBinAddr: 0x10000A100, symSize: 0x20 }
  - { offsetInCU: 0x1DFB2, offset: 0x1DFB2, size: 0x8, addend: 0x0, symName: __ZNSt3__16vectorI8ParticleNS_9allocatorIS1_EEE22__construct_one_at_endB7v160006IJS1_EEEvDpOT_, symObjAddr: 0x6460, symBinAddr: 0x10000A120, symSize: 0x90 }
  - { offsetInCU: 0x1E001, offset: 0x1E001, size: 0x8, addend: 0x0, symName: __ZNSt3__16vectorI8ParticleNS_9allocatorIS1_EEE21__push_back_slow_pathIS1_EEvOT_, symObjAddr: 0x64F0, symBinAddr: 0x10000A1B0, symSize: 0xD0 }
  - { offsetInCU: 0x1E05F, offset: 0x1E05F, size: 0x8, addend: 0x0, symName: __ZNSt3__117__compressed_pairIP8ParticleNS_9allocatorIS1_EEE5firstB7v160006Ev, symObjAddr: 0x65C0, symBinAddr: 0x10000A280, symSize: 0x20 }
  - { offsetInCU: 0x1E085, offset: 0x1E085, size: 0x8, addend: 0x0, symName: __ZNSt3__122__compressed_pair_elemIP8ParticleLi0ELb0EE5__getB7v160006Ev, symObjAddr: 0x65E0, symBinAddr: 0x10000A2A0, symSize: 0x10 }
  - { offsetInCU: 0x1E0C4, offset: 0x1E0C4, size: 0x8, addend: 0x0, symName: __ZNSt3__16vectorI8ParticleNS_9allocatorIS1_EEE21_ConstructTransactionC1B7v160006ERS4_m, symObjAddr: 0x65F0, symBinAddr: 0x10000A2B0, symSize: 0x30 }
  - { offsetInCU: 0x1E10C, offset: 0x1E10C, size: 0x8, addend: 0x0, symName: __ZNSt3__116allocator_traitsINS_9allocatorI8ParticleEEE9constructB7v160006IS2_JS2_EvEEvRS3_PT_DpOT0_, symObjAddr: 0x6620, symBinAddr: 0x10000A2E0, symSize: 0x30 }
  - { offsetInCU: 0x1E163, offset: 0x1E163, size: 0x8, addend: 0x0, symName: __ZNSt3__16vectorI8ParticleNS_9allocatorIS1_EEE21_ConstructTransactionD1B7v160006Ev, symObjAddr: 0x6650, symBinAddr: 0x10000A310, symSize: 0x20 }
  - { offsetInCU: 0x1E18D, offset: 0x1E18D, size: 0x8, addend: 0x0, symName: __ZNSt3__16vectorI8ParticleNS_9allocatorIS1_EEE21_ConstructTransactionC2B7v160006ERS4_m, symObjAddr: 0x6670, symBinAddr: 0x10000A330, symSize: 0x40 }
  - { offsetInCU: 0x1E1D5, offset: 0x1E1D5, size: 0x8, addend: 0x0, symName: __ZNSt3__19allocatorI8ParticleE9constructB7v160006IS1_JS1_EEEvPT_DpOT0_, symObjAddr: 0x66B0, symBinAddr: 0x10000A370, symSize: 0x30 }
  - { offsetInCU: 0x1E22B, offset: 0x1E22B, size: 0x8, addend: 0x0, symName: __ZN8ParticleC1EOS_, symObjAddr: 0x66E0, symBinAddr: 0x10000A3A0, symSize: 0x30 }
  - { offsetInCU: 0x1E260, offset: 0x1E260, size: 0x8, addend: 0x0, symName: __ZN8ParticleC2EOS_, symObjAddr: 0x6710, symBinAddr: 0x10000A3D0, symSize: 0x50 }
  - { offsetInCU: 0x1E29A, offset: 0x1E29A, size: 0x8, addend: 0x0, symName: __ZN2sf11CircleShapeC1EOS0_, symObjAddr: 0x6760, symBinAddr: 0x10000A420, symSize: 0x30 }
  - { offsetInCU: 0x1E2CF, offset: 0x1E2CF, size: 0x8, addend: 0x0, symName: __ZN2sf11CircleShapeC2EOS0_, symObjAddr: 0x6790, symBinAddr: 0x10000A450, symSize: 0x70 }
  - { offsetInCU: 0x1E304, offset: 0x1E304, size: 0x8, addend: 0x0, symName: __ZNSt3__16vectorI8ParticleNS_9allocatorIS1_EEE21_ConstructTransactionD2B7v160006Ev, symObjAddr: 0x6800, symBinAddr: 0x10000A4C0, symSize: 0x20 }
  - { offsetInCU: 0x1E32E, offset: 0x1E32E, size: 0x8, addend: 0x0, symName: __ZNKSt3__16vectorI8ParticleNS_9allocatorIS1_EEE11__recommendB7v160006Em, symObjAddr: 0x6820, symBinAddr: 0x10000A4E0, symSize: 0xA0 }
  - { offsetInCU: 0x1E383, offset: 0x1E383, size: 0x8, addend: 0x0, symName: __ZNSt3__114__split_bufferI8ParticleRNS_9allocatorIS1_EEEC1EmmS4_, symObjAddr: 0x68C0, symBinAddr: 0x10000A580, symSize: 0x40 }
  - { offsetInCU: 0x1E3D9, offset: 0x1E3D9, size: 0x8, addend: 0x0, symName: __ZNSt3__114__split_bufferI8ParticleRNS_9allocatorIS1_EEED1Ev, symObjAddr: 0x6A30, symBinAddr: 0x10000A6F0, symSize: 0x20 }
  - { offsetInCU: 0x1E405, offset: 0x1E405, size: 0x8, addend: 0x0, symName: __ZNKSt3__16vectorI8ParticleNS_9allocatorIS1_EEE8max_sizeEv, symObjAddr: 0x6A50, symBinAddr: 0x10000A710, symSize: 0x60 }
  - { offsetInCU: 0x1E42D, offset: 0x1E42D, size: 0x8, addend: 0x0, symName: __ZNKSt3__16vectorI8ParticleNS_9allocatorIS1_EEE20__throw_length_errorB7v160006Ev, symObjAddr: 0x6AB0, symBinAddr: 0x10000A770, symSize: 0x20 }
  - { offsetInCU: 0x1E45D, offset: 0x1E45D, size: 0x8, addend: 0x0, symName: __ZNSt3__116allocator_traitsINS_9allocatorI8ParticleEEE8max_sizeB7v160006IS3_vEEmRKS3_, symObjAddr: 0x6AD0, symBinAddr: 0x10000A790, symSize: 0x20 }
  - { offsetInCU: 0x1E48B, offset: 0x1E48B, size: 0x8, addend: 0x0, symName: __ZNKSt3__16vectorI8ParticleNS_9allocatorIS1_EEE7__allocB7v160006Ev, symObjAddr: 0x6AF0, symBinAddr: 0x10000A7B0, symSize: 0x20 }
  - { offsetInCU: 0x1E4B1, offset: 0x1E4B1, size: 0x8, addend: 0x0, symName: __ZNKSt3__19allocatorI8ParticleE8max_sizeB7v160006Ev, symObjAddr: 0x6B10, symBinAddr: 0x10000A7D0, symSize: 0x20 }
  - { offsetInCU: 0x1E4D7, offset: 0x1E4D7, size: 0x8, addend: 0x0, symName: __ZNKSt3__117__compressed_pairIP8ParticleNS_9allocatorIS1_EEE6secondB7v160006Ev, symObjAddr: 0x6B30, symBinAddr: 0x10000A7F0, symSize: 0x20 }
  - { offsetInCU: 0x1E4FD, offset: 0x1E4FD, size: 0x8, addend: 0x0, symName: __ZNKSt3__122__compressed_pair_elemINS_9allocatorI8ParticleEELi1ELb1EE5__getB7v160006Ev, symObjAddr: 0x6B50, symBinAddr: 0x10000A810, symSize: 0x10 }
  - { offsetInCU: 0x1E523, offset: 0x1E523, size: 0x8, addend: 0x0, symName: __ZNSt3__114__split_bufferI8ParticleRNS_9allocatorIS1_EEEC2EmmS4_, symObjAddr: 0x6B60, symBinAddr: 0x10000A820, symSize: 0xD0 }
  - { offsetInCU: 0x1E596, offset: 0x1E596, size: 0x8, addend: 0x0, symName: __ZNSt3__117__compressed_pairIP8ParticleRNS_9allocatorIS1_EEEC1B7v160006IDnS5_EEOT_OT0_, symObjAddr: 0x6C30, symBinAddr: 0x10000A8F0, symSize: 0x30 }
  - { offsetInCU: 0x1E5EE, offset: 0x1E5EE, size: 0x8, addend: 0x0, symName: __ZNSt3__114__split_bufferI8ParticleRNS_9allocatorIS1_EEE7__allocB7v160006Ev, symObjAddr: 0x6CA0, symBinAddr: 0x10000A960, symSize: 0x20 }
  - { offsetInCU: 0x1E614, offset: 0x1E614, size: 0x8, addend: 0x0, symName: __ZNSt3__114__split_bufferI8ParticleRNS_9allocatorIS1_EEE9__end_capB7v160006Ev, symObjAddr: 0x6CC0, symBinAddr: 0x10000A980, symSize: 0x20 }
  - { offsetInCU: 0x1E63A, offset: 0x1E63A, size: 0x8, addend: 0x0, symName: __ZNSt3__117__compressed_pairIP8ParticleRNS_9allocatorIS1_EEEC2B7v160006IDnS5_EEOT_OT0_, symObjAddr: 0x6CE0, symBinAddr: 0x10000A9A0, symSize: 0x40 }
  - { offsetInCU: 0x1E692, offset: 0x1E692, size: 0x8, addend: 0x0, symName: __ZNSt3__122__compressed_pair_elemIRNS_9allocatorI8ParticleEELi1ELb0EEC2B7v160006IS4_vEEOT_, symObjAddr: 0x6D20, symBinAddr: 0x10000A9E0, symSize: 0x20 }
  - { offsetInCU: 0x1E6D4, offset: 0x1E6D4, size: 0x8, addend: 0x0, symName: __ZNSt3__19allocatorI8ParticleE8allocateB7v160006Em, symObjAddr: 0x6D40, symBinAddr: 0x10000AA00, symSize: 0x50 }
  - { offsetInCU: 0x1E708, offset: 0x1E708, size: 0x8, addend: 0x0, symName: __ZNSt3__117__compressed_pairIP8ParticleRNS_9allocatorIS1_EEE6secondB7v160006Ev, symObjAddr: 0x6D90, symBinAddr: 0x10000AA50, symSize: 0x20 }
  - { offsetInCU: 0x1E72E, offset: 0x1E72E, size: 0x8, addend: 0x0, symName: __ZNSt3__122__compressed_pair_elemIRNS_9allocatorI8ParticleEELi1ELb0EE5__getB7v160006Ev, symObjAddr: 0x6DB0, symBinAddr: 0x10000AA70, symSize: 0x20 }
  - { offsetInCU: 0x1E754, offset: 0x1E754, size: 0x8, addend: 0x0, symName: __ZNSt3__117__compressed_pairIP8ParticleRNS_9allocatorIS1_EEE5firstB7v160006Ev, symObjAddr: 0x6DD0, symBinAddr: 0x10000AA90, symSize: 0x20 }
  - { offsetInCU: 0x1E77A, offset: 0x1E77A, size: 0x8, addend: 0x0, symName: __ZNSt3__116reverse_iteratorIP8ParticleEC1B7v160006ES2_, symObjAddr: 0x6F70, symBinAddr: 0x10000AC30, symSize: 0x30 }
  - { offsetInCU: 0x1E7B2, offset: 0x1E7B2, size: 0x8, addend: 0x0, symName: __ZNKSt3__116reverse_iteratorIP8ParticleE4baseB7v160006Ev, symObjAddr: 0x6FA0, symBinAddr: 0x10000AC60, symSize: 0x20 }
  - { offsetInCU: 0x1E7D8, offset: 0x1E7D8, size: 0x8, addend: 0x0, symName: __ZNKSt3__16vectorI8ParticleNS_9allocatorIS1_EEE14__annotate_newB7v160006Em, symObjAddr: 0x7000, symBinAddr: 0x10000ACC0, symSize: 0xB0 }
  - { offsetInCU: 0x1E80D, offset: 0x1E80D, size: 0x8, addend: 0x0, symName: __ZNSt3__129_AllocatorDestroyRangeReverseINS_9allocatorI8ParticleEENS_16reverse_iteratorIPS2_EEEC1B7v160006ERS3_RS6_S9_, symObjAddr: 0x7120, symBinAddr: 0x10000ADE0, symSize: 0x40 }
  - { offsetInCU: 0x1E864, offset: 0x1E864, size: 0x8, addend: 0x0, symName: __ZNSt3__116allocator_traitsINS_9allocatorI8ParticleEEE9constructB7v160006IS2_JRKS2_EvEEvRS3_PT_DpOT0_, symObjAddr: 0x71A0, symBinAddr: 0x10000AE60, symSize: 0x30 }
  - { offsetInCU: 0x1E8BB, offset: 0x1E8BB, size: 0x8, addend: 0x0, symName: __ZNKSt3__116reverse_iteratorIP8ParticleEdeB7v160006Ev, symObjAddr: 0x71F0, symBinAddr: 0x10000AEB0, symSize: 0x30 }
  - { offsetInCU: 0x1E8EF, offset: 0x1E8EF, size: 0x8, addend: 0x0, symName: __ZNSt3__116reverse_iteratorIP8ParticleEppB7v160006Ev, symObjAddr: 0x7220, symBinAddr: 0x10000AEE0, symSize: 0x20 }
  - { offsetInCU: 0x1E915, offset: 0x1E915, size: 0x8, addend: 0x0, symName: __ZNSt3__128__exception_guard_exceptionsINS_29_AllocatorDestroyRangeReverseINS_9allocatorI8ParticleEENS_16reverse_iteratorIPS3_EEEEE10__completeB7v160006Ev, symObjAddr: 0x7240, symBinAddr: 0x10000AF00, symSize: 0x20 }
  - { offsetInCU: 0x1E93B, offset: 0x1E93B, size: 0x8, addend: 0x0, symName: __ZNSt3__128__exception_guard_exceptionsINS_29_AllocatorDestroyRangeReverseINS_9allocatorI8ParticleEENS_16reverse_iteratorIPS3_EEEEED1B7v160006Ev, symObjAddr: 0x7260, symBinAddr: 0x10000AF20, symSize: 0x20 }
  - { offsetInCU: 0x1E965, offset: 0x1E965, size: 0x8, addend: 0x0, symName: __ZNSt3__128__exception_guard_exceptionsINS_29_AllocatorDestroyRangeReverseINS_9allocatorI8ParticleEENS_16reverse_iteratorIPS3_EEEEEC1B7v160006ES8_, symObjAddr: 0x7280, symBinAddr: 0x10000AF40, symSize: 0x40 }
  - { offsetInCU: 0x1E99D, offset: 0x1E99D, size: 0x8, addend: 0x0, symName: __ZNSt3__128__exception_guard_exceptionsINS_29_AllocatorDestroyRangeReverseINS_9allocatorI8ParticleEENS_16reverse_iteratorIPS3_EEEEEC2B7v160006ES8_, symObjAddr: 0x72C0, symBinAddr: 0x10000AF80, symSize: 0x30 }
  - { offsetInCU: 0x1E9D5, offset: 0x1E9D5, size: 0x8, addend: 0x0, symName: __ZNSt3__129_AllocatorDestroyRangeReverseINS_9allocatorI8ParticleEENS_16reverse_iteratorIPS2_EEEC2B7v160006ERS3_RS6_S9_, symObjAddr: 0x72F0, symBinAddr: 0x10000AFB0, symSize: 0x40 }
  - { offsetInCU: 0x1EA2C, offset: 0x1EA2C, size: 0x8, addend: 0x0, symName: __ZNSt3__19allocatorI8ParticleE9constructB7v160006IS1_JRKS1_EEEvPT_DpOT0_, symObjAddr: 0x7330, symBinAddr: 0x10000AFF0, symSize: 0x30 }
  - { offsetInCU: 0x1EA87, offset: 0x1EA87, size: 0x8, addend: 0x0, symName: __ZNSt3__119__to_address_helperINS_16reverse_iteratorIP8ParticleEEvE6__callB7v160006ERKS4_, symObjAddr: 0x7360, symBinAddr: 0x10000B020, symSize: 0x40 }
  - { offsetInCU: 0x1EAAA, offset: 0x1EAAA, size: 0x8, addend: 0x0, symName: __ZNKSt3__116reverse_iteratorIP8ParticleEptB7v160006Ev, symObjAddr: 0x73A0, symBinAddr: 0x10000B060, symSize: 0x20 }
  - { offsetInCU: 0x1EAD0, offset: 0x1EAD0, size: 0x8, addend: 0x0, symName: __ZNSt3__128__exception_guard_exceptionsINS_29_AllocatorDestroyRangeReverseINS_9allocatorI8ParticleEENS_16reverse_iteratorIPS3_EEEEED2B7v160006Ev, symObjAddr: 0x73C0, symBinAddr: 0x10000B080, symSize: 0x40 }
  - { offsetInCU: 0x1EAFA, offset: 0x1EAFA, size: 0x8, addend: 0x0, symName: __ZNKSt3__129_AllocatorDestroyRangeReverseINS_9allocatorI8ParticleEENS_16reverse_iteratorIPS2_EEEclB7v160006Ev, symObjAddr: 0x7400, symBinAddr: 0x10000B0C0, symSize: 0xF0 }
  - { offsetInCU: 0x1EB21, offset: 0x1EB21, size: 0x8, addend: 0x0, symName: __ZNSt3__116reverse_iteratorINS0_IP8ParticleEEEC1B7v160006ES3_, symObjAddr: 0x7560, symBinAddr: 0x10000B220, symSize: 0x30 }
  - { offsetInCU: 0x1EB59, offset: 0x1EB59, size: 0x8, addend: 0x0, symName: __ZNSt3__116reverse_iteratorINS0_IP8ParticleEEEppB7v160006Ev, symObjAddr: 0x7600, symBinAddr: 0x10000B2C0, symSize: 0x30 }
  - { offsetInCU: 0x1EB7F, offset: 0x1EB7F, size: 0x8, addend: 0x0, symName: __ZNKSt3__116reverse_iteratorINS0_IP8ParticleEEE4baseB7v160006Ev, symObjAddr: 0x7630, symBinAddr: 0x10000B2F0, symSize: 0x20 }
  - { offsetInCU: 0x1EBAA, offset: 0x1EBAA, size: 0x8, addend: 0x0, symName: __ZNSt3__119__to_address_helperINS_16reverse_iteratorINS1_IP8ParticleEEEEvE6__callB7v160006ERKS5_, symObjAddr: 0x7650, symBinAddr: 0x10000B310, symSize: 0x40 }
  - { offsetInCU: 0x1EBCD, offset: 0x1EBCD, size: 0x8, addend: 0x0, symName: __ZNKSt3__116reverse_iteratorINS0_IP8ParticleEEEptB7v160006Ev, symObjAddr: 0x7690, symBinAddr: 0x10000B350, symSize: 0x20 }
  - { offsetInCU: 0x1EBF3, offset: 0x1EBF3, size: 0x8, addend: 0x0, symName: __ZNKSt3__116reverse_iteratorINS0_IP8ParticleEEEdeB7v160006Ev, symObjAddr: 0x76B0, symBinAddr: 0x10000B370, symSize: 0x40 }
  - { offsetInCU: 0x1EC27, offset: 0x1EC27, size: 0x8, addend: 0x0, symName: __ZNSt3__116reverse_iteratorIP8ParticleEmmB7v160006Ev, symObjAddr: 0x76F0, symBinAddr: 0x10000B3B0, symSize: 0x20 }
  - { offsetInCU: 0x1EC4D, offset: 0x1EC4D, size: 0x8, addend: 0x0, symName: __ZNSt3__116reverse_iteratorINS0_IP8ParticleEEEC2B7v160006ES3_, symObjAddr: 0x7710, symBinAddr: 0x10000B3D0, symSize: 0x40 }
  - { offsetInCU: 0x1EC85, offset: 0x1EC85, size: 0x8, addend: 0x0, symName: __ZNSt3__116reverse_iteratorIP8ParticleEC2B7v160006ES2_, symObjAddr: 0x7750, symBinAddr: 0x10000B410, symSize: 0x30 }
  - { offsetInCU: 0x1ECBD, offset: 0x1ECBD, size: 0x8, addend: 0x0, symName: __ZNSt3__114__split_bufferI8ParticleRNS_9allocatorIS1_EEED2Ev, symObjAddr: 0x7780, symBinAddr: 0x10000B440, symSize: 0x70 }
  - { offsetInCU: 0x1ECE9, offset: 0x1ECE9, size: 0x8, addend: 0x0, symName: __ZNSt3__114__split_bufferI8ParticleRNS_9allocatorIS1_EEE5clearB7v160006Ev, symObjAddr: 0x77F0, symBinAddr: 0x10000B4B0, symSize: 0x20 }
  - { offsetInCU: 0x1ED0F, offset: 0x1ED0F, size: 0x8, addend: 0x0, symName: __ZNKSt3__114__split_bufferI8ParticleRNS_9allocatorIS1_EEE8capacityB7v160006Ev, symObjAddr: 0x7810, symBinAddr: 0x10000B4D0, symSize: 0x40 }
  - { offsetInCU: 0x1ED35, offset: 0x1ED35, size: 0x8, addend: 0x0, symName: __ZNSt3__114__split_bufferI8ParticleRNS_9allocatorIS1_EEE17__destruct_at_endB7v160006EPS1_, symObjAddr: 0x7850, symBinAddr: 0x10000B510, symSize: 0x30 }
  - { offsetInCU: 0x1ED69, offset: 0x1ED69, size: 0x8, addend: 0x0, symName: __ZNSt3__114__split_bufferI8ParticleRNS_9allocatorIS1_EEE17__destruct_at_endB7v160006EPS1_NS_17integral_constantIbLb0EEE, symObjAddr: 0x7880, symBinAddr: 0x10000B540, symSize: 0x80 }
  - { offsetInCU: 0x1EDAA, offset: 0x1EDAA, size: 0x8, addend: 0x0, symName: __ZNKSt3__114__split_bufferI8ParticleRNS_9allocatorIS1_EEE9__end_capB7v160006Ev, symObjAddr: 0x7900, symBinAddr: 0x10000B5C0, symSize: 0x20 }
  - { offsetInCU: 0x1EDD0, offset: 0x1EDD0, size: 0x8, addend: 0x0, symName: __ZNKSt3__117__compressed_pairIP8ParticleRNS_9allocatorIS1_EEE5firstB7v160006Ev, symObjAddr: 0x7920, symBinAddr: 0x10000B5E0, symSize: 0x1B }
...
