---
triple:          'x86_64-apple-darwin'
binary-path:     '/Volumes/D-Drive/code/c++/tutorials/a_star/main'
relocations:
  - { offsetInCU: 0x38, offset: 0x38, size: 0x8, addend: 0x0, symName: __ZN7Utility12genRandomIntEii, symObjAddr: 0x0, symBinAddr: 0x100001300, symSize: 0x120 }
  - { offsetInCU: 0x61, offset: 0x61, size: 0x8, addend: 0x0, symName: __ZZN7Utility12genRandomIntEiiE2rd, symObjAddr: 0x8C390, symBinAddr: 0x100010000, symSize: 0x0 }
  - { offsetInCU: 0x76, offset: 0x76, size: 0x8, addend: 0x0, symName: __ZZN7Utility12genRandomIntEiiE3gen, symObjAddr: 0x8C3A0, symBinAddr: 0x100010010, symSize: 0x0 }
  - { offsetInCU: 0xAA, offset: 0xAA, size: 0x8, addend: 0x0, symName: __ZN7Utility14genRandomFloatEff, symObjAddr: 0x220, symBinAddr: 0x100001520, symSize: 0x130 }
  - { offsetInCU: 0xD3, offset: 0xD3, size: 0x8, addend: 0x0, symName: __ZZN7Utility14genRandomFloatEffE2rd, symObjAddr: 0x8CD70, symBinAddr: 0x1000109E0, symSize: 0x0 }
  - { offsetInCU: 0xE8, offset: 0xE8, size: 0x8, addend: 0x0, symName: __ZZN7Utility14genRandomFloatEffE3gen, symObjAddr: 0x8CD80, symBinAddr: 0x1000109F0, symSize: 0x0 }
  - { offsetInCU: 0x11046, offset: 0x11046, size: 0x8, addend: 0x0, symName: __ZNSt3__17advanceB7v160006IPN2sf6VertexEmmvEEvRT_T0_, symObjAddr: 0x6DA0, symBinAddr: 0x1000080A0, symSize: 0x50 }
  - { offsetInCU: 0x12825, offset: 0x12825, size: 0x8, addend: 0x0, symName: __ZNSt3__119__debug_db_insert_cB7v160006INS_12basic_stringIcNS_11char_traitsIcEENS_9allocatorIcEEEEEEvPT_, symObjAddr: 0x9B0, symBinAddr: 0x100001CB0, symSize: 0x10 }
  - { offsetInCU: 0x12856, offset: 0x12856, size: 0x8, addend: 0x0, symName: __ZNSt3__118__constexpr_strlenB7v160006EPKc, symObjAddr: 0xA50, symBinAddr: 0x100001D50, symSize: 0x20 }
  - { offsetInCU: 0x12882, offset: 0x12882, size: 0x8, addend: 0x0, symName: __ZNSt3__119__debug_db_insert_cB7v160006INS_6vectorINS1_I4CellNS_9allocatorIS2_EEEENS3_IS5_EEEEEEvPT_, symObjAddr: 0xDF0, symBinAddr: 0x1000020F0, symSize: 0x10 }
  - { offsetInCU: 0x128B3, offset: 0x128B3, size: 0x8, addend: 0x0, symName: __ZNSt3__112__to_addressB7v160006INS_6vectorI4CellNS_9allocatorIS2_EEEEEEPT_S7_, symObjAddr: 0x16E0, symBinAddr: 0x1000029E0, symSize: 0x10 }
  - { offsetInCU: 0x128E8, offset: 0x128E8, size: 0x8, addend: 0x0, symName: __ZNSt3__119__debug_db_insert_cB7v160006INS_6vectorI4CellNS_9allocatorIS2_EEEEEEvPT_, symObjAddr: 0x1820, symBinAddr: 0x100002B20, symSize: 0x10 }
  - { offsetInCU: 0x12919, offset: 0x12919, size: 0x8, addend: 0x0, symName: __ZNSt3__13maxB7v160006ImEERKT_S3_S3_, symObjAddr: 0x19F0, symBinAddr: 0x100002CF0, symSize: 0x30 }
  - { offsetInCU: 0x1295C, offset: 0x1295C, size: 0x8, addend: 0x0, symName: __ZNSt3__13minB7v160006ImEERKT_S3_S3_, symObjAddr: 0x1A20, symBinAddr: 0x100002D20, symSize: 0x30 }
  - { offsetInCU: 0x12B89, offset: 0x12B89, size: 0x8, addend: 0x0, symName: __ZNSt3__13minB7v160006ImNS_6__lessImmEEEERKT_S5_S5_T0_, symObjAddr: 0x1AA0, symBinAddr: 0x100002DA0, symSize: 0x50 }
  - { offsetInCU: 0x12C1E, offset: 0x12C1E, size: 0x8, addend: 0x0, symName: __ZNSt3__120__throw_length_errorB7v160006EPKc, symObjAddr: 0x1B80, symBinAddr: 0x100002E80, symSize: 0x70 }
  - { offsetInCU: 0x12C46, offset: 0x12C46, size: 0x8, addend: 0x0, symName: __ZNSt3__13maxB7v160006ImNS_6__lessImmEEEERKT_S5_S5_T0_, symObjAddr: 0x1CB0, symBinAddr: 0x100002FB0, symSize: 0x50 }
  - { offsetInCU: 0x12CA0, offset: 0x12CA0, size: 0x8, addend: 0x0, symName: __ZNSt3__119__allocate_at_leastB7v160006INS_9allocatorINS_6vectorI4CellNS1_IS3_EEEEEEEENS_19__allocation_resultINS_16allocator_traitsIT_E7pointerEEERS9_m, symObjAddr: 0x1DF0, symBinAddr: 0x1000030F0, symSize: 0x40 }
  - { offsetInCU: 0x12CE3, offset: 0x12CE3, size: 0x8, addend: 0x0, symName: __ZNSt3__117__libcpp_allocateB7v160006Emm, symObjAddr: 0x1F60, symBinAddr: 0x100003260, symSize: 0x60 }
  - { offsetInCU: 0x12D3D, offset: 0x12D3D, size: 0x8, addend: 0x0, symName: __ZNSt3__124__is_overaligned_for_newB7v160006Em, symObjAddr: 0x1FC0, symBinAddr: 0x1000032C0, symSize: 0x20 }
  - { offsetInCU: 0x12D6B, offset: 0x12D6B, size: 0x8, addend: 0x0, symName: __ZNSt3__121__libcpp_operator_newB7v160006IJmSt11align_val_tEEEPvDpT_, symObjAddr: 0x1FE0, symBinAddr: 0x1000032E0, symSize: 0x30 }
  - { offsetInCU: 0x12DB8, offset: 0x12DB8, size: 0x8, addend: 0x0, symName: __ZNSt3__121__libcpp_operator_newB7v160006IJmEEEPvDpT_, symObjAddr: 0x2010, symBinAddr: 0x100003310, symSize: 0x20 }
  - { offsetInCU: 0x12DF1, offset: 0x12DF1, size: 0x8, addend: 0x0, symName: __ZNSt3__142__uninitialized_allocator_move_if_noexceptB7v160006INS_9allocatorINS_6vectorI4CellNS1_IS3_EEEEEENS_16reverse_iteratorIPS5_EES9_S9_EET2_RT_T0_T1_SA_, symObjAddr: 0x21F0, symBinAddr: 0x1000034F0, symSize: 0x180 }
  - { offsetInCU: 0x12E90, offset: 0x12E90, size: 0x8, addend: 0x0, symName: __ZNSt3__14swapB7v160006IPNS_6vectorI4CellNS_9allocatorIS2_EEEEEENS_9enable_ifIXaasr21is_move_constructibleIT_EE5valuesr18is_move_assignableIS8_EE5valueEvE4typeERS8_SB_, symObjAddr: 0x23C0, symBinAddr: 0x1000036C0, symSize: 0x40 }
  - { offsetInCU: 0x12EE1, offset: 0x12EE1, size: 0x8, addend: 0x0, symName: __ZNSt3__125__debug_db_invalidate_allB7v160006INS_6vectorINS1_I4CellNS_9allocatorIS2_EEEENS3_IS5_EEEEEEvPT_, symObjAddr: 0x24A0, symBinAddr: 0x1000037A0, symSize: 0x10 }
  - { offsetInCU: 0x12F12, offset: 0x12F12, size: 0x8, addend: 0x0, symName: __ZNSt3__122__make_exception_guardB7v160006INS_29_AllocatorDestroyRangeReverseINS_9allocatorINS_6vectorI4CellNS2_IS4_EEEEEENS_16reverse_iteratorIPS6_EEEEEENS_28__exception_guard_exceptionsIT_EESD_, symObjAddr: 0x24F0, symBinAddr: 0x1000037F0, symSize: 0x60 }
  - { offsetInCU: 0x12F47, offset: 0x12F47, size: 0x8, addend: 0x0, symName: __ZNSt3__1neB7v160006IPNS_6vectorI4CellNS_9allocatorIS2_EEEES6_EEbRKNS_16reverse_iteratorIT_EERKNS7_IT0_EE, symObjAddr: 0x2590, symBinAddr: 0x100003890, symSize: 0x40 }
  - { offsetInCU: 0x12F93, offset: 0x12F93, size: 0x8, addend: 0x0, symName: __ZNSt3__112__to_addressB7v160006INS_16reverse_iteratorIPNS_6vectorI4CellNS_9allocatorIS3_EEEEEEvEENS_5decayIDTclsr19__to_address_helperIT_EE6__callclsr3stdE7declvalIRKSA_EEEEE4typeESC_, symObjAddr: 0x2600, symBinAddr: 0x100003900, symSize: 0x20 }
  - { offsetInCU: 0x12FC9, offset: 0x12FC9, size: 0x8, addend: 0x0, symName: __ZNSt3__115__debug_db_swapB7v160006INS_6vectorI4CellNS_9allocatorIS2_EEEEEEvPT_S7_, symObjAddr: 0x28F0, symBinAddr: 0x100003BF0, symSize: 0x10 }
  - { offsetInCU: 0x13031, offset: 0x13031, size: 0x8, addend: 0x0, symName: __ZNSt3__119__allocator_destroyB7v160006INS_9allocatorINS_6vectorI4CellNS1_IS3_EEEEEENS_16reverse_iteratorINS7_IPS5_EEEESA_EEvRT_T0_T1_, symObjAddr: 0x2B60, symBinAddr: 0x100003E60, symSize: 0x70 }
  - { offsetInCU: 0x13094, offset: 0x13094, size: 0x8, addend: 0x0, symName: __ZNSt3__1neB7v160006INS_16reverse_iteratorIPNS_6vectorI4CellNS_9allocatorIS3_EEEEEES8_EEbRKNS1_IT_EERKNS1_IT0_EE, symObjAddr: 0x2C00, symBinAddr: 0x100003F00, symSize: 0x50 }
  - { offsetInCU: 0x130E0, offset: 0x130E0, size: 0x8, addend: 0x0, symName: __ZNSt3__112__to_addressB7v160006INS_16reverse_iteratorINS1_IPNS_6vectorI4CellNS_9allocatorIS3_EEEEEEEEvEENS_5decayIDTclsr19__to_address_helperIT_EE6__callclsr3stdE7declvalIRKSB_EEEEE4typeESD_, symObjAddr: 0x2C80, symBinAddr: 0x100003F80, symSize: 0x20 }
  - { offsetInCU: 0x13116, offset: 0x13116, size: 0x8, addend: 0x0, symName: __ZNSt3__118__debug_db_erase_cB7v160006INS_6vectorI4CellNS_9allocatorIS2_EEEEEEvPT_, symObjAddr: 0x2F10, symBinAddr: 0x100004210, symSize: 0x10 }
  - { offsetInCU: 0x13147, offset: 0x13147, size: 0x8, addend: 0x0, symName: __ZNSt3__112__to_addressB7v160006I4CellEEPT_S3_, symObjAddr: 0x3020, symBinAddr: 0x100004320, symSize: 0x10 }
  - { offsetInCU: 0x1317C, offset: 0x1317C, size: 0x8, addend: 0x0, symName: __ZNSt3__119__libcpp_deallocateB7v160006EPvmm, symObjAddr: 0x3140, symBinAddr: 0x100004440, symSize: 0x60 }
  - { offsetInCU: 0x131E1, offset: 0x131E1, size: 0x8, addend: 0x0, symName: __ZNSt3__127__do_deallocate_handle_sizeB7v160006IJSt11align_val_tEEEvPvmDpT_, symObjAddr: 0x31A0, symBinAddr: 0x1000044A0, symSize: 0x30 }
  - { offsetInCU: 0x13234, offset: 0x13234, size: 0x8, addend: 0x0, symName: __ZNSt3__127__do_deallocate_handle_sizeB7v160006IJEEEvPvmDpT_, symObjAddr: 0x31D0, symBinAddr: 0x1000044D0, symSize: 0x20 }
  - { offsetInCU: 0x13272, offset: 0x13272, size: 0x8, addend: 0x0, symName: __ZNSt3__124__libcpp_operator_deleteB7v160006IJPvSt11align_val_tEEEvDpT_, symObjAddr: 0x31F0, symBinAddr: 0x1000044F0, symSize: 0x30 }
  - { offsetInCU: 0x132BB, offset: 0x132BB, size: 0x8, addend: 0x0, symName: __ZNSt3__124__libcpp_operator_deleteB7v160006IJPvEEEvDpT_, symObjAddr: 0x3220, symBinAddr: 0x100004520, symSize: 0x20 }
  - { offsetInCU: 0x13319, offset: 0x13319, size: 0x8, addend: 0x0, symName: __ZNSt3__119__allocate_at_leastB7v160006INS_9allocatorI4CellEEEENS_19__allocation_resultINS_16allocator_traitsIT_E7pointerEEERS6_m, symObjAddr: 0x40A0, symBinAddr: 0x1000053A0, symSize: 0x40 }
  - { offsetInCU: 0x1335C, offset: 0x1335C, size: 0x8, addend: 0x0, symName: __ZNSt3__142__uninitialized_allocator_move_if_noexceptB7v160006INS_9allocatorI4CellEENS_16reverse_iteratorIPS2_EES6_S6_EET2_RT_T0_T1_S7_, symObjAddr: 0x42E0, symBinAddr: 0x1000055E0, symSize: 0x180 }
  - { offsetInCU: 0x133FB, offset: 0x133FB, size: 0x8, addend: 0x0, symName: __ZNSt3__14swapB7v160006IP4CellEENS_9enable_ifIXaasr21is_move_constructibleIT_EE5valuesr18is_move_assignableIS4_EE5valueEvE4typeERS4_S7_, symObjAddr: 0x44B0, symBinAddr: 0x1000057B0, symSize: 0x40 }
  - { offsetInCU: 0x1344C, offset: 0x1344C, size: 0x8, addend: 0x0, symName: __ZNSt3__125__debug_db_invalidate_allB7v160006INS_6vectorI4CellNS_9allocatorIS2_EEEEEEvPT_, symObjAddr: 0x45A0, symBinAddr: 0x1000058A0, symSize: 0x10 }
  - { offsetInCU: 0x1347D, offset: 0x1347D, size: 0x8, addend: 0x0, symName: __ZNSt3__122__make_exception_guardB7v160006INS_29_AllocatorDestroyRangeReverseINS_9allocatorI4CellEENS_16reverse_iteratorIPS3_EEEEEENS_28__exception_guard_exceptionsIT_EESA_, symObjAddr: 0x45B0, symBinAddr: 0x1000058B0, symSize: 0x60 }
  - { offsetInCU: 0x134B2, offset: 0x134B2, size: 0x8, addend: 0x0, symName: __ZNSt3__1neB7v160006IP4CellS2_EEbRKNS_16reverse_iteratorIT_EERKNS3_IT0_EE, symObjAddr: 0x4650, symBinAddr: 0x100005950, symSize: 0x40 }
  - { offsetInCU: 0x134FE, offset: 0x134FE, size: 0x8, addend: 0x0, symName: __ZNSt3__112__to_addressB7v160006INS_16reverse_iteratorIP4CellEEvEENS_5decayIDTclsr19__to_address_helperIT_EE6__callclsr3stdE7declvalIRKS6_EEEEE4typeES8_, symObjAddr: 0x46C0, symBinAddr: 0x1000059C0, symSize: 0x20 }
  - { offsetInCU: 0x13534, offset: 0x13534, size: 0x8, addend: 0x0, symName: __ZNSt3__122__make_exception_guardB7v160006INS_6vectorIN2sf6VertexENS_9allocatorIS3_EEE16__destroy_vectorEEENS_28__exception_guard_exceptionsIT_EES9_, symObjAddr: 0x4E50, symBinAddr: 0x100006150, symSize: 0x40 }
  - { offsetInCU: 0x13569, offset: 0x13569, size: 0x8, addend: 0x0, symName: __ZNSt3__119__debug_db_insert_cB7v160006INS_6vectorIN2sf6VertexENS_9allocatorIS3_EEEEEEvPT_, symObjAddr: 0x4EC0, symBinAddr: 0x1000061C0, symSize: 0x10 }
  - { offsetInCU: 0x1359A, offset: 0x1359A, size: 0x8, addend: 0x0, symName: __ZNSt3__119__allocate_at_leastB7v160006INS_9allocatorIN2sf6VertexEEEEENS_19__allocation_resultINS_16allocator_traitsIT_E7pointerEEERS7_m, symObjAddr: 0x5200, symBinAddr: 0x100006500, symSize: 0x40 }
  - { offsetInCU: 0x135DD, offset: 0x135DD, size: 0x8, addend: 0x0, symName: __ZNSt3__112__to_addressB7v160006IN2sf6VertexEEEPT_S4_, symObjAddr: 0x5490, symBinAddr: 0x100006790, symSize: 0x10 }
  - { offsetInCU: 0x13612, offset: 0x13612, size: 0x8, addend: 0x0, symName: __ZNSt3__130__uninitialized_allocator_copyB7v160006INS_9allocatorIN2sf6VertexEEEPS3_S5_S5_EET2_RT_T0_T1_S6_, symObjAddr: 0x5520, symBinAddr: 0x100006820, symSize: 0x100 }
  - { offsetInCU: 0x136B0, offset: 0x136B0, size: 0x8, addend: 0x0, symName: __ZNSt3__122__make_exception_guardB7v160006INS_29_AllocatorDestroyRangeReverseINS_9allocatorIN2sf6VertexEEEPS4_EEEENS_28__exception_guard_exceptionsIT_EES9_, symObjAddr: 0x5680, symBinAddr: 0x100006980, symSize: 0x60 }
  - { offsetInCU: 0x136E5, offset: 0x136E5, size: 0x8, addend: 0x0, symName: __ZNSt3__119__allocator_destroyB7v160006INS_9allocatorIN2sf6VertexEEENS_16reverse_iteratorIPS3_EES7_EEvRT_T0_T1_, symObjAddr: 0x5910, symBinAddr: 0x100006C10, symSize: 0x70 }
  - { offsetInCU: 0x13748, offset: 0x13748, size: 0x8, addend: 0x0, symName: __ZNSt3__1neB7v160006IPN2sf6VertexES3_EEbRKNS_16reverse_iteratorIT_EERKNS4_IT0_EE, symObjAddr: 0x59B0, symBinAddr: 0x100006CB0, symSize: 0x40 }
  - { offsetInCU: 0x13794, offset: 0x13794, size: 0x8, addend: 0x0, symName: __ZNSt3__112__to_addressB7v160006INS_16reverse_iteratorIPN2sf6VertexEEEvEENS_5decayIDTclsr19__to_address_helperIT_EE6__callclsr3stdE7declvalIRKS7_EEEEE4typeES9_, symObjAddr: 0x5A20, symBinAddr: 0x100006D20, symSize: 0x20 }
  - { offsetInCU: 0x137F3, offset: 0x137F3, size: 0x8, addend: 0x0, symName: __ZNSt3__118__debug_db_erase_cB7v160006INS_6vectorIN2sf6VertexENS_9allocatorIS3_EEEEEEvPT_, symObjAddr: 0x5CF0, symBinAddr: 0x100006FF0, symSize: 0x10 }
  - { offsetInCU: 0x1384D, offset: 0x1384D, size: 0x8, addend: 0x0, symName: __ZNSt3__119__allocator_destroyB7v160006INS_9allocatorI4CellEENS_16reverse_iteratorINS4_IPS2_EEEES7_EEvRT_T0_T1_, symObjAddr: 0x60C0, symBinAddr: 0x1000073C0, symSize: 0x70 }
  - { offsetInCU: 0x138B0, offset: 0x138B0, size: 0x8, addend: 0x0, symName: __ZNSt3__1neB7v160006INS_16reverse_iteratorIP4CellEES4_EEbRKNS1_IT_EERKNS1_IT0_EE, symObjAddr: 0x6160, symBinAddr: 0x100007460, symSize: 0x50 }
  - { offsetInCU: 0x138FC, offset: 0x138FC, size: 0x8, addend: 0x0, symName: __ZNSt3__112__to_addressB7v160006INS_16reverse_iteratorINS1_IP4CellEEEEvEENS_5decayIDTclsr19__to_address_helperIT_EE6__callclsr3stdE7declvalIRKS7_EEEEE4typeES9_, symObjAddr: 0x61B0, symBinAddr: 0x1000074B0, symSize: 0x20 }
  - { offsetInCU: 0x1395B, offset: 0x1395B, size: 0x8, addend: 0x0, symName: __ZNSt3__18distanceB7v160006IPN2sf6VertexEEENS_15iterator_traitsIT_E15difference_typeES5_S5_, symObjAddr: 0x6D70, symBinAddr: 0x100008070, symSize: 0x30 }
  - { offsetInCU: 0x1399E, offset: 0x1399E, size: 0x8, addend: 0x0, symName: __ZNSt3__14copyB7v160006IPN2sf6VertexES3_EET0_T_S5_S4_, symObjAddr: 0x6DF0, symBinAddr: 0x1000080F0, symSize: 0x40 }
  - { offsetInCU: 0x139F8, offset: 0x139F8, size: 0x8, addend: 0x0, symName: __ZNSt3__125__debug_db_invalidate_allB7v160006INS_6vectorIN2sf6VertexENS_9allocatorIS3_EEEEEEvPT_, symObjAddr: 0x6FB0, symBinAddr: 0x1000082B0, symSize: 0x10 }
  - { offsetInCU: 0x13A29, offset: 0x13A29, size: 0x8, addend: 0x0, symName: __ZNSt3__110__distanceB7v160006IPN2sf6VertexEEENS_15iterator_traitsIT_E15difference_typeES5_S5_NS_26random_access_iterator_tagE, symObjAddr: 0x6FC0, symBinAddr: 0x1000082C0, symSize: 0x30 }
  - { offsetInCU: 0x13A76, offset: 0x13A76, size: 0x8, addend: 0x0, symName: __ZNSt3__121__convert_to_integralB7v160006Em, symObjAddr: 0x6FF0, symBinAddr: 0x1000082F0, symSize: 0x10 }
  - { offsetInCU: 0x13AA2, offset: 0x13AA2, size: 0x8, addend: 0x0, symName: __ZNSt3__19__advanceB7v160006IPN2sf6VertexEEEvRT_NS_15iterator_traitsIS4_E15difference_typeENS_26random_access_iterator_tagE, symObjAddr: 0x7000, symBinAddr: 0x100008300, symSize: 0x20 }
  - { offsetInCU: 0x13AEB, offset: 0x13AEB, size: 0x8, addend: 0x0, symName: __ZNSt3__16__copyB7v160006INS_17_ClassicAlgPolicyEPN2sf6VertexES4_S4_EENS_4pairIT0_T2_EES6_T1_S7_, symObjAddr: 0x7020, symBinAddr: 0x100008320, symSize: 0x40 }
  - { offsetInCU: 0x13B57, offset: 0x13B57, size: 0x8, addend: 0x0, symName: __ZNSt3__123__dispatch_copy_or_moveB7v160006INS_17_ClassicAlgPolicyENS_11__copy_loopIS1_EENS_14__copy_trivialEPN2sf6VertexES7_S7_EENS_4pairIT2_T4_EES9_T3_SA_, symObjAddr: 0x7060, symBinAddr: 0x100008360, symSize: 0x40 }
  - { offsetInCU: 0x13BD5, offset: 0x13BD5, size: 0x8, addend: 0x0, symName: __ZNSt3__121__unwrap_and_dispatchB7v160006INS_10__overloadINS_11__copy_loopINS_17_ClassicAlgPolicyEEENS_14__copy_trivialEEEPN2sf6VertexES9_S9_Li0EEENS_4pairIT0_T2_EESB_T1_SC_, symObjAddr: 0x70A0, symBinAddr: 0x1000083A0, symSize: 0xB0 }
  - { offsetInCU: 0x13C64, offset: 0x13C64, size: 0x8, addend: 0x0, symName: __ZNSt3__114__unwrap_rangeB7v160006IPN2sf6VertexES3_EENS_4pairIT0_S5_EET_S7_, symObjAddr: 0x7150, symBinAddr: 0x100008450, symSize: 0x50 }
  - { offsetInCU: 0x13DF9, offset: 0x13DF9, size: 0x8, addend: 0x0, symName: __ZNSt3__113__unwrap_iterB7v160006IPN2sf6VertexENS_18__unwrap_iter_implIS3_Lb1EEELi0EEEDTclsrT0_8__unwrapclsr3stdE7declvalIT_EEEES7_, symObjAddr: 0x71E0, symBinAddr: 0x1000084E0, symSize: 0x20 }
  - { offsetInCU: 0x13E3D, offset: 0x13E3D, size: 0x8, addend: 0x0, symName: __ZNSt3__19make_pairB7v160006IPN2sf6VertexES3_EENS_4pairINS_18__unwrap_ref_decayIT_E4typeENS5_IT0_E4typeEEEOS6_OS9_, symObjAddr: 0x7200, symBinAddr: 0x100008500, symSize: 0x30 }
  - { offsetInCU: 0x13E8C, offset: 0x13E8C, size: 0x8, addend: 0x0, symName: __ZNSt3__114__rewrap_rangeB7v160006IPN2sf6VertexES3_EET_S4_T0_, symObjAddr: 0x7230, symBinAddr: 0x100008530, symSize: 0x30 }
  - { offsetInCU: 0x13ED8, offset: 0x13ED8, size: 0x8, addend: 0x0, symName: __ZNSt3__113__rewrap_iterB7v160006IPN2sf6VertexES3_NS_18__unwrap_iter_implIS3_Lb1EEEEET_S6_T0_, symObjAddr: 0x7260, symBinAddr: 0x100008560, symSize: 0x40 }
  - { offsetInCU: 0x13F2D, offset: 0x13F2D, size: 0x8, addend: 0x0, symName: __ZNSt3__119__copy_trivial_implB7v160006IN2sf6VertexES2_EENS_4pairIPT_PT0_EES5_S5_S7_, symObjAddr: 0x72A0, symBinAddr: 0x1000085A0, symSize: 0x90 }
  - { offsetInCU: 0x13F95, offset: 0x13F95, size: 0x8, addend: 0x0, symName: __ZNSt3__19make_pairB7v160006IRPN2sf6VertexES3_EENS_4pairINS_18__unwrap_ref_decayIT_E4typeENS6_IT0_E4typeEEEOS7_OSA_, symObjAddr: 0x7330, symBinAddr: 0x100008630, symSize: 0x30 }
  - { offsetInCU: 0x14037, offset: 0x14037, size: 0x8, addend: 0x0, symName: __ZNSt3__118__debug_db_erase_cB7v160006INS_6vectorINS1_I4CellNS_9allocatorIS2_EEEENS3_IS5_EEEEEEvPT_, symObjAddr: 0x7700, symBinAddr: 0x100008A00, symSize: 0x10 }
  - { offsetInCU: 0x14068, offset: 0x14068, size: 0x8, addend: 0x0, symName: __ZNSt3__119__debug_db_insert_cB7v160006INS_6vectorIP4CellNS_9allocatorIS3_EEEEEEvPT_, symObjAddr: 0x7A10, symBinAddr: 0x100008D10, symSize: 0x10 }
  - { offsetInCU: 0x14099, offset: 0x14099, size: 0x8, addend: 0x0, symName: __ZNSt3__112__to_addressB7v160006IP4CellEEPT_S4_, symObjAddr: 0x7D00, symBinAddr: 0x100009000, symSize: 0x10 }
  - { offsetInCU: 0x140CE, offset: 0x140CE, size: 0x8, addend: 0x0, symName: __ZNSt3__119__allocate_at_leastB7v160006INS_9allocatorIP4CellEEEENS_19__allocation_resultINS_16allocator_traitsIT_E7pointerEEERS7_m, symObjAddr: 0x82C0, symBinAddr: 0x1000095C0, symSize: 0x40 }
  - { offsetInCU: 0x14111, offset: 0x14111, size: 0x8, addend: 0x0, symName: __ZNSt3__142__uninitialized_allocator_move_if_noexceptB7v160006INS_9allocatorIP4CellEENS_16reverse_iteratorIPS3_EES7_S3_vEET1_RT_T0_SB_S8_, symObjAddr: 0x8500, symBinAddr: 0x100009800, symSize: 0x70 }
  - { offsetInCU: 0x1418D, offset: 0x1418D, size: 0x8, addend: 0x0, symName: __ZNSt3__14swapB7v160006IPP4CellEENS_9enable_ifIXaasr21is_move_constructibleIT_EE5valuesr18is_move_assignableIS5_EE5valueEvE4typeERS5_S8_, symObjAddr: 0x85C0, symBinAddr: 0x1000098C0, symSize: 0x40 }
  - { offsetInCU: 0x141DE, offset: 0x141DE, size: 0x8, addend: 0x0, symName: __ZNSt3__125__debug_db_invalidate_allB7v160006INS_6vectorIP4CellNS_9allocatorIS3_EEEEEEvPT_, symObjAddr: 0x86B0, symBinAddr: 0x1000099B0, symSize: 0x10 }
  - { offsetInCU: 0x1420F, offset: 0x1420F, size: 0x8, addend: 0x0, symName: __ZNSt3__14moveB7v160006INS_16reverse_iteratorIPP4CellEES5_EET0_T_S7_S6_, symObjAddr: 0x8700, symBinAddr: 0x100009A00, symSize: 0x80 }
  - { offsetInCU: 0x14269, offset: 0x14269, size: 0x8, addend: 0x0, symName: __ZNSt3__16__moveB7v160006INS_17_ClassicAlgPolicyENS_16reverse_iteratorIPP4CellEES6_S6_EENS_4pairIT0_T2_EES8_T1_S9_, symObjAddr: 0x8780, symBinAddr: 0x100009A80, symSize: 0x90 }
  - { offsetInCU: 0x142D5, offset: 0x142D5, size: 0x8, addend: 0x0, symName: __ZNSt3__123__dispatch_copy_or_moveB7v160006INS_17_ClassicAlgPolicyENS_11__move_loopIS1_EENS_14__move_trivialENS_16reverse_iteratorIPP4CellEES9_S9_EENS_4pairIT2_T4_EESB_T3_SC_, symObjAddr: 0x8810, symBinAddr: 0x100009B10, symSize: 0x90 }
  - { offsetInCU: 0x14353, offset: 0x14353, size: 0x8, addend: 0x0, symName: __ZNSt3__121__unwrap_and_dispatchB7v160006INS_10__overloadINS_11__move_loopINS_17_ClassicAlgPolicyEEENS_14__move_trivialEEENS_16reverse_iteratorIPP4CellEESB_SB_Li0EEENS_4pairIT0_T2_EESD_T1_SE_, symObjAddr: 0x88A0, symBinAddr: 0x100009BA0, symSize: 0x210 }
  - { offsetInCU: 0x143E2, offset: 0x143E2, size: 0x8, addend: 0x0, symName: __ZNSt3__114__unwrap_rangeB7v160006INS_16reverse_iteratorIPP4CellEES5_EENS_4pairIT0_S7_EET_S9_, symObjAddr: 0x8AB0, symBinAddr: 0x100009DB0, symSize: 0x90 }
  - { offsetInCU: 0x1455D, offset: 0x1455D, size: 0x8, addend: 0x0, symName: __ZNSt3__113__unwrap_iterB7v160006INS_16reverse_iteratorIPP4CellEENS_18__unwrap_iter_implIS5_Lb0EEELi0EEEDTclsrT0_8__unwrapclsr3stdE7declvalIT_EEEES9_, symObjAddr: 0x8BE0, symBinAddr: 0x100009EE0, symSize: 0x40 }
  - { offsetInCU: 0x145A1, offset: 0x145A1, size: 0x8, addend: 0x0, symName: __ZNSt3__19make_pairB7v160006INS_16reverse_iteratorIPP4CellEES5_EENS_4pairINS_18__unwrap_ref_decayIT_E4typeENS7_IT0_E4typeEEEOS8_OSB_, symObjAddr: 0x8C20, symBinAddr: 0x100009F20, symSize: 0x30 }
  - { offsetInCU: 0x145F0, offset: 0x145F0, size: 0x8, addend: 0x0, symName: __ZNSt3__114__rewrap_rangeB7v160006INS_16reverse_iteratorIPP4CellEES5_EET_S6_T0_, symObjAddr: 0x8C50, symBinAddr: 0x100009F50, symSize: 0x60 }
  - { offsetInCU: 0x1463C, offset: 0x1463C, size: 0x8, addend: 0x0, symName: __ZNSt3__113__rewrap_iterB7v160006INS_16reverse_iteratorIPP4CellEES5_NS_18__unwrap_iter_implIS5_Lb0EEEEET_S8_T0_, symObjAddr: 0x8CB0, symBinAddr: 0x100009FB0, symSize: 0x70 }
  - { offsetInCU: 0x14691, offset: 0x14691, size: 0x8, addend: 0x0, symName: __ZNSt3__1neB7v160006IPP4CellS3_EEbRKNS_16reverse_iteratorIT_EERKNS4_IT0_EE, symObjAddr: 0x8D20, symBinAddr: 0x10000A020, symSize: 0x40 }
  - { offsetInCU: 0x1478F, offset: 0x1478F, size: 0x8, addend: 0x0, symName: __ZNSt3__118__debug_db_erase_cB7v160006INS_6vectorIP4CellNS_9allocatorIS3_EEEEEEvPT_, symObjAddr: 0x9250, symBinAddr: 0x10000A550, symSize: 0x10 }
  - { offsetInCU: 0x147C0, offset: 0x147C0, size: 0x8, addend: 0x0, symName: __ZNSt3__118__debug_db_erase_cB7v160006INS_12basic_stringIjNS_11char_traitsIjEENS_9allocatorIjEEEEEEvPT_, symObjAddr: 0x9420, symBinAddr: 0x10000A720, symSize: 0x10 }
  - { offsetInCU: 0x14815, offset: 0x14815, size: 0x8, addend: 0x0, symName: __ZNSt3__113__countl_zeroB7v160006IjEEiT_, symObjAddr: 0x99A0, symBinAddr: 0x10000ACA0, symSize: 0x40 }
  - { offsetInCU: 0x1484A, offset: 0x1484A, size: 0x8, addend: 0x0, symName: __ZNSt3__112__libcpp_clzB7v160006Ej, symObjAddr: 0x9D90, symBinAddr: 0x10000B090, symSize: 0x20 }
  - { offsetInCU: 0x14876, offset: 0x14876, size: 0x8, addend: 0x0, symName: __ZNSt3__118generate_canonicalB7v160006IfLm24ENS_23mersenne_twister_engineIjLm32ELm624ELm397ELm31ELj2567483615ELm11ELj4294967295ELm7ELj2636928640ELm15ELj4022730752ELm18ELj1812433253EEEEET_RT1_, symObjAddr: 0x9F00, symBinAddr: 0x10000B200, symSize: 0x100 }
  - { offsetInCU: 0x14E7E, offset: 0x14E7E, size: 0x8, addend: 0x0, symName: __ZSt28__throw_bad_array_new_lengthB7v160006v, symObjAddr: 0x1F20, symBinAddr: 0x100003220, symSize: 0x40 }
  - { offsetInCU: 0x150B5, offset: 0x150B5, size: 0x8, addend: 0x0, symName: __ZN13WindowUtility7bgColorE, symObjAddr: 0x8D750, symBinAddr: 0x1000113C0, symSize: 0x0 }
  - { offsetInCU: 0x150CE, offset: 0x150CE, size: 0x8, addend: 0x0, symName: __ZN13WindowUtility16handleCloseEventERN2sf12RenderWindowE, symObjAddr: 0x3B0, symBinAddr: 0x1000016B0, symSize: 0x50 }
  - { offsetInCU: 0x194BA, offset: 0x194BA, size: 0x8, addend: 0x0, symName: _windowSize, symObjAddr: 0x8D754, symBinAddr: 0x1000113C4, symSize: 0x0 }
  - { offsetInCU: 0x1A9CE, offset: 0x1A9CE, size: 0x8, addend: 0x0, symName: __ZNSt3__16vectorINS0_I4CellNS_9allocatorIS1_EEEENS2_IS4_EEE26__swap_out_circular_bufferERNS_14__split_bufferIS4_RS5_EE, symObjAddr: 0x1500, symBinAddr: 0x100002800, symSize: 0x130 }
  - { offsetInCU: 0x1AA66, offset: 0x1AA66, size: 0x8, addend: 0x0, symName: __ZNSt3__16vectorI4CellNS_9allocatorIS1_EEE26__swap_out_circular_bufferERNS_14__split_bufferIS1_RS3_EE, symObjAddr: 0x3AE0, symBinAddr: 0x100004DE0, symSize: 0x130 }
  - { offsetInCU: 0x1AB58, offset: 0x1AB58, size: 0x8, addend: 0x0, symName: __ZNSt3__16vectorIP4CellNS_9allocatorIS2_EEE26__swap_out_circular_bufferERNS_14__split_bufferIS2_RS4_EE, symObjAddr: 0x7EE0, symBinAddr: 0x1000091E0, symSize: 0x130 }
  - { offsetInCU: 0x1ABDC, offset: 0x1ABDC, size: 0x8, addend: 0x0, symName: __ZNSt3__124uniform_int_distributionIiEclINS_23mersenne_twister_engineIjLm32ELm624ELm397ELm31ELj2567483615ELm11ELj4294967295ELm7ELj2636928640ELm15ELj4022730752ELm18ELj1812433253EEEEEiRT_RKNS1_10param_typeE, symObjAddr: 0x97D0, symBinAddr: 0x10000AAD0, symSize: 0x150 }
  - { offsetInCU: 0x1CEEA, offset: 0x1CEEA, size: 0x8, addend: 0x0, symName: __ZNSt3__113random_deviceC1Ev, symObjAddr: 0x120, symBinAddr: 0x100001420, symSize: 0x70 }
  - { offsetInCU: 0x1CF14, offset: 0x1CF14, size: 0x8, addend: 0x0, symName: __ZNSt3__123mersenne_twister_engineIjLm32ELm624ELm397ELm31ELj2567483615ELm11ELj4294967295ELm7ELj2636928640ELm15ELj4022730752ELm18ELj1812433253EEC1B7v160006Ej, symObjAddr: 0x190, symBinAddr: 0x100001490, symSize: 0x30 }
  - { offsetInCU: 0x1CF4C, offset: 0x1CF4C, size: 0x8, addend: 0x0, symName: __ZNSt3__124uniform_int_distributionIiEC1Eii, symObjAddr: 0x1C0, symBinAddr: 0x1000014C0, symSize: 0x30 }
  - { offsetInCU: 0x1CF92, offset: 0x1CF92, size: 0x8, addend: 0x0, symName: __ZNSt3__124uniform_int_distributionIiEclINS_23mersenne_twister_engineIjLm32ELm624ELm397ELm31ELj2567483615ELm11ELj4294967295ELm7ELj2636928640ELm15ELj4022730752ELm18ELj1812433253EEEEEiRT_, symObjAddr: 0x1F0, symBinAddr: 0x1000014F0, symSize: 0x30 }
  - { offsetInCU: 0x1CFF2, offset: 0x1CFF2, size: 0x8, addend: 0x0, symName: __ZNSt3__125uniform_real_distributionIfEC1Eff, symObjAddr: 0x350, symBinAddr: 0x100001650, symSize: 0x30 }
  - { offsetInCU: 0x1D038, offset: 0x1D038, size: 0x8, addend: 0x0, symName: __ZNSt3__125uniform_real_distributionIfEclB7v160006INS_23mersenne_twister_engineIjLm32ELm624ELm397ELm31ELj2567483615ELm11ELj4294967295ELm7ELj2636928640ELm15ELj4022730752ELm18ELj1812433253EEEEEfRT_, symObjAddr: 0x380, symBinAddr: 0x100001680, symSize: 0x30 }
  - { offsetInCU: 0x1D075, offset: 0x1D075, size: 0x8, addend: 0x0, symName: __ZN2sf7Vector2IfEC1Eff, symObjAddr: 0x400, symBinAddr: 0x100001700, symSize: 0x30 }
  - { offsetInCU: 0x1D0BD, offset: 0x1D0BD, size: 0x8, addend: 0x0, symName: _main, symObjAddr: 0x430, symBinAddr: 0x100001730, symSize: 0x2D0 }
  - { offsetInCU: 0x1D104, offset: 0x1D104, size: 0x8, addend: 0x0, symName: __ZN4GridC1EN2sf7Vector2IfEE, symObjAddr: 0x700, symBinAddr: 0x100001A00, symSize: 0x30 }
  - { offsetInCU: 0x1D13C, offset: 0x1D13C, size: 0x8, addend: 0x0, symName: __ZN4GameC1ER4Grid, symObjAddr: 0x730, symBinAddr: 0x100001A30, symSize: 0x30 }
  - { offsetInCU: 0x1D174, offset: 0x1D174, size: 0x8, addend: 0x0, symName: __ZN2sf15ContextSettingsC1Ejjjjjjb, symObjAddr: 0x760, symBinAddr: 0x100001A60, symSize: 0x60 }
  - { offsetInCU: 0x1D200, offset: 0x1D200, size: 0x8, addend: 0x0, symName: __ZN2sf6StringD1Ev, symObjAddr: 0x7C0, symBinAddr: 0x100001AC0, symSize: 0x20 }
  - { offsetInCU: 0x1D22C, offset: 0x1D22C, size: 0x8, addend: 0x0, symName: __ZN4Grid4drawERN2sf12RenderWindowE, symObjAddr: 0x7E0, symBinAddr: 0x100001AE0, symSize: 0xA0 }
  - { offsetInCU: 0x1D298, offset: 0x1D298, size: 0x8, addend: 0x0, symName: __ZN4GameD1Ev, symObjAddr: 0x880, symBinAddr: 0x100001B80, symSize: 0x20 }
  - { offsetInCU: 0x1D2C4, offset: 0x1D2C4, size: 0x8, addend: 0x0, symName: __ZN4GridD1Ev, symObjAddr: 0x8A0, symBinAddr: 0x100001BA0, symSize: 0x20 }
  - { offsetInCU: 0x1D2F5, offset: 0x1D2F5, size: 0x8, addend: 0x0, symName: __ZNSt3__112basic_stringIcNS_11char_traitsIcEENS_9allocatorIcEEEC1B7v160006IDnEEPKc, symObjAddr: 0x8C0, symBinAddr: 0x100001BC0, symSize: 0x30 }
  - { offsetInCU: 0x1D333, offset: 0x1D333, size: 0x8, addend: 0x0, symName: __ZNSt3__112basic_stringIcNS_11char_traitsIcEENS_9allocatorIcEEEC2B7v160006IDnEEPKc, symObjAddr: 0x8F0, symBinAddr: 0x100001BF0, symSize: 0x60 }
  - { offsetInCU: 0x1D376, offset: 0x1D376, size: 0x8, addend: 0x0, symName: __ZNSt3__117__compressed_pairINS_12basic_stringIcNS_11char_traitsIcEENS_9allocatorIcEEE5__repES5_EC1B7v160006INS_18__default_init_tagESA_EEOT_OT0_, symObjAddr: 0x950, symBinAddr: 0x100001C50, symSize: 0x30 }
  - { offsetInCU: 0x1D3CE, offset: 0x1D3CE, size: 0x8, addend: 0x0, symName: __ZNSt3__111char_traitsIcE6lengthEPKc, symObjAddr: 0x980, symBinAddr: 0x100001C80, symSize: 0x30 }
  - { offsetInCU: 0x1D3F1, offset: 0x1D3F1, size: 0x8, addend: 0x0, symName: __ZNSt3__117__compressed_pairINS_12basic_stringIcNS_11char_traitsIcEENS_9allocatorIcEEE5__repES5_EC2B7v160006INS_18__default_init_tagESA_EEOT_OT0_, symObjAddr: 0x9C0, symBinAddr: 0x100001CC0, symSize: 0x30 }
  - { offsetInCU: 0x1D449, offset: 0x1D449, size: 0x8, addend: 0x0, symName: __ZNSt3__122__compressed_pair_elemINS_12basic_stringIcNS_11char_traitsIcEENS_9allocatorIcEEE5__repELi0ELb0EEC2B7v160006ENS_18__default_init_tagE, symObjAddr: 0x9F0, symBinAddr: 0x100001CF0, symSize: 0x10 }
  - { offsetInCU: 0x1D47D, offset: 0x1D47D, size: 0x8, addend: 0x0, symName: __ZNSt3__122__compressed_pair_elemINS_9allocatorIcEELi1ELb1EEC2B7v160006ENS_18__default_init_tagE, symObjAddr: 0xA00, symBinAddr: 0x100001D00, symSize: 0x20 }
  - { offsetInCU: 0x1D4B1, offset: 0x1D4B1, size: 0x8, addend: 0x0, symName: __ZNSt3__19allocatorIcEC2B7v160006Ev, symObjAddr: 0xA20, symBinAddr: 0x100001D20, symSize: 0x20 }
  - { offsetInCU: 0x1D4DB, offset: 0x1D4DB, size: 0x8, addend: 0x0, symName: __ZNSt3__116__non_trivial_ifILb1ENS_9allocatorIcEEEC2B7v160006Ev, symObjAddr: 0xA40, symBinAddr: 0x100001D40, symSize: 0x10 }
  - { offsetInCU: 0x1D505, offset: 0x1D505, size: 0x8, addend: 0x0, symName: __ZN4GridC2EN2sf7Vector2IfEE, symObjAddr: 0xA80, symBinAddr: 0x100001D80, symSize: 0xB0 }
  - { offsetInCU: 0x1D53D, offset: 0x1D53D, size: 0x8, addend: 0x0, symName: __ZN2sf7Vector2IfEC1Ev, symObjAddr: 0xB30, symBinAddr: 0x100001E30, symSize: 0x20 }
  - { offsetInCU: 0x1D569, offset: 0x1D569, size: 0x8, addend: 0x0, symName: __ZNSt3__16vectorINS0_I4CellNS_9allocatorIS1_EEEENS2_IS4_EEEC1B7v160006Ev, symObjAddr: 0xB50, symBinAddr: 0x100001E50, symSize: 0x20 }
  - { offsetInCU: 0x1D593, offset: 0x1D593, size: 0x8, addend: 0x0, symName: __ZN4Grid9setupGridERN2sf7Vector2IfEE, symObjAddr: 0xB70, symBinAddr: 0x100001E70, symSize: 0x1B0 }
  - { offsetInCU: 0x1D60D, offset: 0x1D60D, size: 0x8, addend: 0x0, symName: __ZNSt3__16vectorINS0_I4CellNS_9allocatorIS1_EEEENS2_IS4_EEED1B7v160006Ev, symObjAddr: 0xD20, symBinAddr: 0x100002020, symSize: 0x20 }
  - { offsetInCU: 0x1D637, offset: 0x1D637, size: 0x8, addend: 0x0, symName: __ZN2sf7Vector2IfEC2Ev, symObjAddr: 0xD40, symBinAddr: 0x100002040, symSize: 0x20 }
  - { offsetInCU: 0x1D663, offset: 0x1D663, size: 0x8, addend: 0x0, symName: __ZNSt3__16vectorINS0_I4CellNS_9allocatorIS1_EEEENS2_IS4_EEEC2B7v160006Ev, symObjAddr: 0xD60, symBinAddr: 0x100002060, symSize: 0x60 }
  - { offsetInCU: 0x1D692, offset: 0x1D692, size: 0x8, addend: 0x0, symName: __ZNSt3__117__compressed_pairIPNS_6vectorI4CellNS_9allocatorIS2_EEEENS3_IS5_EEEC1B7v160006IDnNS_18__default_init_tagEEEOT_OT0_, symObjAddr: 0xDC0, symBinAddr: 0x1000020C0, symSize: 0x30 }
  - { offsetInCU: 0x1D6EA, offset: 0x1D6EA, size: 0x8, addend: 0x0, symName: __ZNSt3__117__compressed_pairIPNS_6vectorI4CellNS_9allocatorIS2_EEEENS3_IS5_EEEC2B7v160006IDnNS_18__default_init_tagEEEOT_OT0_, symObjAddr: 0xE00, symBinAddr: 0x100002100, symSize: 0x40 }
  - { offsetInCU: 0x1D742, offset: 0x1D742, size: 0x8, addend: 0x0, symName: __ZNSt3__122__compressed_pair_elemIPNS_6vectorI4CellNS_9allocatorIS2_EEEELi0ELb0EEC2B7v160006IDnvEEOT_, symObjAddr: 0xE40, symBinAddr: 0x100002140, symSize: 0x20 }
  - { offsetInCU: 0x1D784, offset: 0x1D784, size: 0x8, addend: 0x0, symName: __ZNSt3__122__compressed_pair_elemINS_9allocatorINS_6vectorI4CellNS1_IS3_EEEEEELi1ELb1EEC2B7v160006ENS_18__default_init_tagE, symObjAddr: 0xE60, symBinAddr: 0x100002160, symSize: 0x20 }
  - { offsetInCU: 0x1D7B8, offset: 0x1D7B8, size: 0x8, addend: 0x0, symName: __ZNSt3__19allocatorINS_6vectorI4CellNS0_IS2_EEEEEC2B7v160006Ev, symObjAddr: 0xE80, symBinAddr: 0x100002180, symSize: 0x20 }
  - { offsetInCU: 0x1D7E2, offset: 0x1D7E2, size: 0x8, addend: 0x0, symName: __ZNSt3__116__non_trivial_ifILb1ENS_9allocatorINS_6vectorI4CellNS1_IS3_EEEEEEEC2B7v160006Ev, symObjAddr: 0xEA0, symBinAddr: 0x1000021A0, symSize: 0x10 }
  - { offsetInCU: 0x1D80C, offset: 0x1D80C, size: 0x8, addend: 0x0, symName: __ZNSt3__16vectorINS0_I4CellNS_9allocatorIS1_EEEENS2_IS4_EEE6resizeEm, symObjAddr: 0xEB0, symBinAddr: 0x1000021B0, symSize: 0x80 }
  - { offsetInCU: 0x1D852, offset: 0x1D852, size: 0x8, addend: 0x0, symName: __ZNSt3__16vectorINS0_I4CellNS_9allocatorIS1_EEEENS2_IS4_EEEixB7v160006Em, symObjAddr: 0xF30, symBinAddr: 0x100002230, symSize: 0x20 }
  - { offsetInCU: 0x1D889, offset: 0x1D889, size: 0x8, addend: 0x0, symName: __ZNSt3__16vectorI4CellNS_9allocatorIS1_EEE6resizeEm, symObjAddr: 0xF50, symBinAddr: 0x100002250, symSize: 0x80 }
  - { offsetInCU: 0x1D8CF, offset: 0x1D8CF, size: 0x8, addend: 0x0, symName: __ZN4CellC1EffN2sf7Vector2IfEE, symObjAddr: 0xFD0, symBinAddr: 0x1000022D0, symSize: 0x40 }
  - { offsetInCU: 0x1D923, offset: 0x1D923, size: 0x8, addend: 0x0, symName: __ZNSt3__16vectorI4CellNS_9allocatorIS1_EEEixB7v160006Em, symObjAddr: 0x1010, symBinAddr: 0x100002310, symSize: 0x20 }
  - { offsetInCU: 0x1D95F, offset: 0x1D95F, size: 0x8, addend: 0x0, symName: __ZN4CellaSEOS_, symObjAddr: 0x1030, symBinAddr: 0x100002330, symSize: 0x90 }
  - { offsetInCU: 0x1D990, offset: 0x1D990, size: 0x8, addend: 0x0, symName: __ZN4CellD1Ev, symObjAddr: 0x10C0, symBinAddr: 0x1000023C0, symSize: 0x20 }
  - { offsetInCU: 0x1D9BC, offset: 0x1D9BC, size: 0x8, addend: 0x0, symName: __ZNKSt3__16vectorINS0_I4CellNS_9allocatorIS1_EEEENS2_IS4_EEE4sizeB7v160006Ev, symObjAddr: 0x10E0, symBinAddr: 0x1000023E0, symSize: 0x30 }
  - { offsetInCU: 0x1D9E2, offset: 0x1D9E2, size: 0x8, addend: 0x0, symName: __ZNSt3__16vectorINS0_I4CellNS_9allocatorIS1_EEEENS2_IS4_EEE8__appendEm, symObjAddr: 0x1110, symBinAddr: 0x100002410, symSize: 0x100 }
  - { offsetInCU: 0x1DA3E, offset: 0x1DA3E, size: 0x8, addend: 0x0, symName: __ZNSt3__16vectorINS0_I4CellNS_9allocatorIS1_EEEENS2_IS4_EEE17__destruct_at_endB7v160006EPS4_, symObjAddr: 0x1210, symBinAddr: 0x100002510, symSize: 0x60 }
  - { offsetInCU: 0x1DA82, offset: 0x1DA82, size: 0x8, addend: 0x0, symName: __ZNSt3__16vectorINS0_I4CellNS_9allocatorIS1_EEEENS2_IS4_EEE9__end_capB7v160006Ev, symObjAddr: 0x1270, symBinAddr: 0x100002570, symSize: 0x20 }
  - { offsetInCU: 0x1DAA8, offset: 0x1DAA8, size: 0x8, addend: 0x0, symName: __ZNSt3__16vectorINS0_I4CellNS_9allocatorIS1_EEEENS2_IS4_EEE18__construct_at_endEm, symObjAddr: 0x1290, symBinAddr: 0x100002590, symSize: 0xC0 }
  - { offsetInCU: 0x1DB1A, offset: 0x1DB1A, size: 0x8, addend: 0x0, symName: __ZNSt3__16vectorINS0_I4CellNS_9allocatorIS1_EEEENS2_IS4_EEE7__allocB7v160006Ev, symObjAddr: 0x1350, symBinAddr: 0x100002650, symSize: 0x20 }
  - { offsetInCU: 0x1DB40, offset: 0x1DB40, size: 0x8, addend: 0x0, symName: __ZNKSt3__16vectorINS0_I4CellNS_9allocatorIS1_EEEENS2_IS4_EEE11__recommendB7v160006Em, symObjAddr: 0x1370, symBinAddr: 0x100002670, symSize: 0xA0 }
  - { offsetInCU: 0x1DB95, offset: 0x1DB95, size: 0x8, addend: 0x0, symName: __ZNSt3__114__split_bufferINS_6vectorI4CellNS_9allocatorIS2_EEEERNS3_IS5_EEEC1EmmS7_, symObjAddr: 0x1410, symBinAddr: 0x100002710, symSize: 0x40 }
  - { offsetInCU: 0x1DBEB, offset: 0x1DBEB, size: 0x8, addend: 0x0, symName: __ZNSt3__114__split_bufferINS_6vectorI4CellNS_9allocatorIS2_EEEERNS3_IS5_EEE18__construct_at_endEm, symObjAddr: 0x1450, symBinAddr: 0x100002750, symSize: 0xB0 }
  - { offsetInCU: 0x1DC2E, offset: 0x1DC2E, size: 0x8, addend: 0x0, symName: __ZNSt3__114__split_bufferINS_6vectorI4CellNS_9allocatorIS2_EEEERNS3_IS5_EEED1Ev, symObjAddr: 0x1630, symBinAddr: 0x100002930, symSize: 0x20 }
  - { offsetInCU: 0x1DC5A, offset: 0x1DC5A, size: 0x8, addend: 0x0, symName: __ZNSt3__117__compressed_pairIPNS_6vectorI4CellNS_9allocatorIS2_EEEENS3_IS5_EEE5firstB7v160006Ev, symObjAddr: 0x1650, symBinAddr: 0x100002950, symSize: 0x20 }
  - { offsetInCU: 0x1DC80, offset: 0x1DC80, size: 0x8, addend: 0x0, symName: __ZNSt3__122__compressed_pair_elemIPNS_6vectorI4CellNS_9allocatorIS2_EEEELi0ELb0EE5__getB7v160006Ev, symObjAddr: 0x1670, symBinAddr: 0x100002970, symSize: 0x10 }
  - { offsetInCU: 0x1DCBF, offset: 0x1DCBF, size: 0x8, addend: 0x0, symName: __ZNSt3__16vectorINS0_I4CellNS_9allocatorIS1_EEEENS2_IS4_EEE21_ConstructTransactionC1B7v160006ERS6_m, symObjAddr: 0x1680, symBinAddr: 0x100002980, symSize: 0x30 }
  - { offsetInCU: 0x1DD07, offset: 0x1DD07, size: 0x8, addend: 0x0, symName: __ZNSt3__116allocator_traitsINS_9allocatorINS_6vectorI4CellNS1_IS3_EEEEEEE9constructB7v160006IS5_JEvEEvRS6_PT_DpOT0_, symObjAddr: 0x16B0, symBinAddr: 0x1000029B0, symSize: 0x30 }
  - { offsetInCU: 0x1DD49, offset: 0x1DD49, size: 0x8, addend: 0x0, symName: __ZNSt3__16vectorINS0_I4CellNS_9allocatorIS1_EEEENS2_IS4_EEE21_ConstructTransactionD1B7v160006Ev, symObjAddr: 0x16F0, symBinAddr: 0x1000029F0, symSize: 0x20 }
  - { offsetInCU: 0x1DD73, offset: 0x1DD73, size: 0x8, addend: 0x0, symName: __ZNSt3__16vectorINS0_I4CellNS_9allocatorIS1_EEEENS2_IS4_EEE21_ConstructTransactionC2B7v160006ERS6_m, symObjAddr: 0x1710, symBinAddr: 0x100002A10, symSize: 0x40 }
  - { offsetInCU: 0x1DDBB, offset: 0x1DDBB, size: 0x8, addend: 0x0, symName: __ZNSt3__19allocatorINS_6vectorI4CellNS0_IS2_EEEEE9constructB7v160006IS4_JEEEvPT_DpOT0_, symObjAddr: 0x1750, symBinAddr: 0x100002A50, symSize: 0x20 }
  - { offsetInCU: 0x1DDFD, offset: 0x1DDFD, size: 0x8, addend: 0x0, symName: __ZNSt3__16vectorI4CellNS_9allocatorIS1_EEEC1B7v160006Ev, symObjAddr: 0x1770, symBinAddr: 0x100002A70, symSize: 0x20 }
  - { offsetInCU: 0x1DE27, offset: 0x1DE27, size: 0x8, addend: 0x0, symName: __ZNSt3__16vectorI4CellNS_9allocatorIS1_EEEC2B7v160006Ev, symObjAddr: 0x1790, symBinAddr: 0x100002A90, symSize: 0x60 }
  - { offsetInCU: 0x1DE51, offset: 0x1DE51, size: 0x8, addend: 0x0, symName: __ZNSt3__117__compressed_pairIP4CellNS_9allocatorIS1_EEEC1B7v160006IDnNS_18__default_init_tagEEEOT_OT0_, symObjAddr: 0x17F0, symBinAddr: 0x100002AF0, symSize: 0x30 }
  - { offsetInCU: 0x1DEA9, offset: 0x1DEA9, size: 0x8, addend: 0x0, symName: __ZNSt3__117__compressed_pairIP4CellNS_9allocatorIS1_EEEC2B7v160006IDnNS_18__default_init_tagEEEOT_OT0_, symObjAddr: 0x1830, symBinAddr: 0x100002B30, symSize: 0x40 }
  - { offsetInCU: 0x1DF01, offset: 0x1DF01, size: 0x8, addend: 0x0, symName: __ZNSt3__122__compressed_pair_elemIP4CellLi0ELb0EEC2B7v160006IDnvEEOT_, symObjAddr: 0x1870, symBinAddr: 0x100002B70, symSize: 0x20 }
  - { offsetInCU: 0x1DF43, offset: 0x1DF43, size: 0x8, addend: 0x0, symName: __ZNSt3__122__compressed_pair_elemINS_9allocatorI4CellEELi1ELb1EEC2B7v160006ENS_18__default_init_tagE, symObjAddr: 0x1890, symBinAddr: 0x100002B90, symSize: 0x20 }
  - { offsetInCU: 0x1DF77, offset: 0x1DF77, size: 0x8, addend: 0x0, symName: __ZNSt3__19allocatorI4CellEC2B7v160006Ev, symObjAddr: 0x18B0, symBinAddr: 0x100002BB0, symSize: 0x20 }
  - { offsetInCU: 0x1DFA1, offset: 0x1DFA1, size: 0x8, addend: 0x0, symName: __ZNSt3__116__non_trivial_ifILb1ENS_9allocatorI4CellEEEC2B7v160006Ev, symObjAddr: 0x18D0, symBinAddr: 0x100002BD0, symSize: 0x10 }
  - { offsetInCU: 0x1DFCB, offset: 0x1DFCB, size: 0x8, addend: 0x0, symName: __ZNSt3__16vectorINS0_I4CellNS_9allocatorIS1_EEEENS2_IS4_EEE21_ConstructTransactionD2B7v160006Ev, symObjAddr: 0x18E0, symBinAddr: 0x100002BE0, symSize: 0x20 }
  - { offsetInCU: 0x1DFF5, offset: 0x1DFF5, size: 0x8, addend: 0x0, symName: __ZNSt3__117__compressed_pairIPNS_6vectorI4CellNS_9allocatorIS2_EEEENS3_IS5_EEE6secondB7v160006Ev, symObjAddr: 0x1900, symBinAddr: 0x100002C00, symSize: 0x20 }
  - { offsetInCU: 0x1E01B, offset: 0x1E01B, size: 0x8, addend: 0x0, symName: __ZNSt3__122__compressed_pair_elemINS_9allocatorINS_6vectorI4CellNS1_IS3_EEEEEELi1ELb1EE5__getB7v160006Ev, symObjAddr: 0x1920, symBinAddr: 0x100002C20, symSize: 0x10 }
  - { offsetInCU: 0x1E041, offset: 0x1E041, size: 0x8, addend: 0x0, symName: __ZNKSt3__16vectorINS0_I4CellNS_9allocatorIS1_EEEENS2_IS4_EEE8max_sizeEv, symObjAddr: 0x1930, symBinAddr: 0x100002C30, symSize: 0x60 }
  - { offsetInCU: 0x1E069, offset: 0x1E069, size: 0x8, addend: 0x0, symName: __ZNKSt3__16vectorINS0_I4CellNS_9allocatorIS1_EEEENS2_IS4_EEE20__throw_length_errorB7v160006Ev, symObjAddr: 0x1990, symBinAddr: 0x100002C90, symSize: 0x20 }
  - { offsetInCU: 0x1E08F, offset: 0x1E08F, size: 0x8, addend: 0x0, symName: __ZNKSt3__16vectorINS0_I4CellNS_9allocatorIS1_EEEENS2_IS4_EEE8capacityB7v160006Ev, symObjAddr: 0x19B0, symBinAddr: 0x100002CB0, symSize: 0x40 }
  - { offsetInCU: 0x1E0BF, offset: 0x1E0BF, size: 0x8, addend: 0x0, symName: __ZNSt3__116allocator_traitsINS_9allocatorINS_6vectorI4CellNS1_IS3_EEEEEEE8max_sizeB7v160006IS6_vEEmRKS6_, symObjAddr: 0x1A50, symBinAddr: 0x100002D50, symSize: 0x20 }
  - { offsetInCU: 0x1E0ED, offset: 0x1E0ED, size: 0x8, addend: 0x0, symName: __ZNKSt3__16vectorINS0_I4CellNS_9allocatorIS1_EEEENS2_IS4_EEE7__allocB7v160006Ev, symObjAddr: 0x1A70, symBinAddr: 0x100002D70, symSize: 0x20 }
  - { offsetInCU: 0x1E113, offset: 0x1E113, size: 0x8, addend: 0x0, symName: __ZNSt3__114numeric_limitsIlE3maxB7v160006Ev, symObjAddr: 0x1A90, symBinAddr: 0x100002D90, symSize: 0x10 }
  - { offsetInCU: 0x1E131, offset: 0x1E131, size: 0x8, addend: 0x0, symName: __ZNKSt3__16__lessImmEclB7v160006ERKmS3_, symObjAddr: 0x1AF0, symBinAddr: 0x100002DF0, symSize: 0x30 }
  - { offsetInCU: 0x1E173, offset: 0x1E173, size: 0x8, addend: 0x0, symName: __ZNKSt3__19allocatorINS_6vectorI4CellNS0_IS2_EEEEE8max_sizeB7v160006Ev, symObjAddr: 0x1B20, symBinAddr: 0x100002E20, symSize: 0x20 }
  - { offsetInCU: 0x1E199, offset: 0x1E199, size: 0x8, addend: 0x0, symName: __ZNKSt3__117__compressed_pairIPNS_6vectorI4CellNS_9allocatorIS2_EEEENS3_IS5_EEE6secondB7v160006Ev, symObjAddr: 0x1B40, symBinAddr: 0x100002E40, symSize: 0x20 }
  - { offsetInCU: 0x1E1BF, offset: 0x1E1BF, size: 0x8, addend: 0x0, symName: __ZNKSt3__122__compressed_pair_elemINS_9allocatorINS_6vectorI4CellNS1_IS3_EEEEEELi1ELb1EE5__getB7v160006Ev, symObjAddr: 0x1B60, symBinAddr: 0x100002E60, symSize: 0x10 }
  - { offsetInCU: 0x1E1E5, offset: 0x1E1E5, size: 0x8, addend: 0x0, symName: __ZNSt3__123__libcpp_numeric_limitsIlLb1EE3maxB7v160006Ev, symObjAddr: 0x1B70, symBinAddr: 0x100002E70, symSize: 0x10 }
  - { offsetInCU: 0x1E1F9, offset: 0x1E1F9, size: 0x8, addend: 0x0, symName: __ZNSt12length_errorC1B7v160006EPKc, symObjAddr: 0x1BF0, symBinAddr: 0x100002EF0, symSize: 0x30 }
  - { offsetInCU: 0x1E231, offset: 0x1E231, size: 0x8, addend: 0x0, symName: __ZNSt12length_errorC2B7v160006EPKc, symObjAddr: 0x1C20, symBinAddr: 0x100002F20, symSize: 0x40 }
  - { offsetInCU: 0x1E269, offset: 0x1E269, size: 0x8, addend: 0x0, symName: __ZNKSt3__16vectorINS0_I4CellNS_9allocatorIS1_EEEENS2_IS4_EEE9__end_capB7v160006Ev, symObjAddr: 0x1C60, symBinAddr: 0x100002F60, symSize: 0x20 }
  - { offsetInCU: 0x1E28F, offset: 0x1E28F, size: 0x8, addend: 0x0, symName: __ZNKSt3__117__compressed_pairIPNS_6vectorI4CellNS_9allocatorIS2_EEEENS3_IS5_EEE5firstB7v160006Ev, symObjAddr: 0x1C80, symBinAddr: 0x100002F80, symSize: 0x20 }
  - { offsetInCU: 0x1E2B5, offset: 0x1E2B5, size: 0x8, addend: 0x0, symName: __ZNKSt3__122__compressed_pair_elemIPNS_6vectorI4CellNS_9allocatorIS2_EEEELi0ELb0EE5__getB7v160006Ev, symObjAddr: 0x1CA0, symBinAddr: 0x100002FA0, symSize: 0x10 }
  - { offsetInCU: 0x1E2DB, offset: 0x1E2DB, size: 0x8, addend: 0x0, symName: __ZNSt3__114__split_bufferINS_6vectorI4CellNS_9allocatorIS2_EEEERNS3_IS5_EEEC2EmmS7_, symObjAddr: 0x1D00, symBinAddr: 0x100003000, symSize: 0xC0 }
  - { offsetInCU: 0x1E34E, offset: 0x1E34E, size: 0x8, addend: 0x0, symName: __ZNSt3__117__compressed_pairIPNS_6vectorI4CellNS_9allocatorIS2_EEEERNS3_IS5_EEEC1B7v160006IDnS8_EEOT_OT0_, symObjAddr: 0x1DC0, symBinAddr: 0x1000030C0, symSize: 0x30 }
  - { offsetInCU: 0x1E3A6, offset: 0x1E3A6, size: 0x8, addend: 0x0, symName: __ZNSt3__114__split_bufferINS_6vectorI4CellNS_9allocatorIS2_EEEERNS3_IS5_EEE7__allocB7v160006Ev, symObjAddr: 0x1E30, symBinAddr: 0x100003130, symSize: 0x20 }
  - { offsetInCU: 0x1E3CC, offset: 0x1E3CC, size: 0x8, addend: 0x0, symName: __ZNSt3__114__split_bufferINS_6vectorI4CellNS_9allocatorIS2_EEEERNS3_IS5_EEE9__end_capB7v160006Ev, symObjAddr: 0x1E50, symBinAddr: 0x100003150, symSize: 0x20 }
  - { offsetInCU: 0x1E3F2, offset: 0x1E3F2, size: 0x8, addend: 0x0, symName: __ZNSt3__117__compressed_pairIPNS_6vectorI4CellNS_9allocatorIS2_EEEERNS3_IS5_EEEC2B7v160006IDnS8_EEOT_OT0_, symObjAddr: 0x1E70, symBinAddr: 0x100003170, symSize: 0x40 }
  - { offsetInCU: 0x1E44A, offset: 0x1E44A, size: 0x8, addend: 0x0, symName: __ZNSt3__122__compressed_pair_elemIRNS_9allocatorINS_6vectorI4CellNS1_IS3_EEEEEELi1ELb0EEC2B7v160006IS7_vEEOT_, symObjAddr: 0x1EB0, symBinAddr: 0x1000031B0, symSize: 0x20 }
  - { offsetInCU: 0x1E48C, offset: 0x1E48C, size: 0x8, addend: 0x0, symName: __ZNSt3__19allocatorINS_6vectorI4CellNS0_IS2_EEEEE8allocateB7v160006Em, symObjAddr: 0x1ED0, symBinAddr: 0x1000031D0, symSize: 0x50 }
  - { offsetInCU: 0x1E4C0, offset: 0x1E4C0, size: 0x8, addend: 0x0, symName: __ZNSt3__117__compressed_pairIPNS_6vectorI4CellNS_9allocatorIS2_EEEERNS3_IS5_EEE6secondB7v160006Ev, symObjAddr: 0x2030, symBinAddr: 0x100003330, symSize: 0x20 }
  - { offsetInCU: 0x1E4E6, offset: 0x1E4E6, size: 0x8, addend: 0x0, symName: __ZNSt3__122__compressed_pair_elemIRNS_9allocatorINS_6vectorI4CellNS1_IS3_EEEEEELi1ELb0EE5__getB7v160006Ev, symObjAddr: 0x2050, symBinAddr: 0x100003350, symSize: 0x20 }
  - { offsetInCU: 0x1E50C, offset: 0x1E50C, size: 0x8, addend: 0x0, symName: __ZNSt3__117__compressed_pairIPNS_6vectorI4CellNS_9allocatorIS2_EEEERNS3_IS5_EEE5firstB7v160006Ev, symObjAddr: 0x2070, symBinAddr: 0x100003370, symSize: 0x20 }
  - { offsetInCU: 0x1E53C, offset: 0x1E53C, size: 0x8, addend: 0x0, symName: __ZNSt3__114__split_bufferINS_6vectorI4CellNS_9allocatorIS2_EEEERNS3_IS5_EEE21_ConstructTransactionC1B7v160006EPPS5_m, symObjAddr: 0x2090, symBinAddr: 0x100003390, symSize: 0x30 }
  - { offsetInCU: 0x1E582, offset: 0x1E582, size: 0x8, addend: 0x0, symName: __ZNSt3__114__split_bufferINS_6vectorI4CellNS_9allocatorIS2_EEEERNS3_IS5_EEE21_ConstructTransactionD1B7v160006Ev, symObjAddr: 0x20C0, symBinAddr: 0x1000033C0, symSize: 0x20 }
  - { offsetInCU: 0x1E5AC, offset: 0x1E5AC, size: 0x8, addend: 0x0, symName: __ZNSt3__114__split_bufferINS_6vectorI4CellNS_9allocatorIS2_EEEERNS3_IS5_EEE21_ConstructTransactionC2B7v160006EPPS5_m, symObjAddr: 0x20E0, symBinAddr: 0x1000033E0, symSize: 0x40 }
  - { offsetInCU: 0x1E5F2, offset: 0x1E5F2, size: 0x8, addend: 0x0, symName: __ZNSt3__114__split_bufferINS_6vectorI4CellNS_9allocatorIS2_EEEERNS3_IS5_EEE21_ConstructTransactionD2B7v160006Ev, symObjAddr: 0x2120, symBinAddr: 0x100003420, symSize: 0x20 }
  - { offsetInCU: 0x1E61C, offset: 0x1E61C, size: 0x8, addend: 0x0, symName: __ZNKSt3__16vectorINS0_I4CellNS_9allocatorIS1_EEEENS2_IS4_EEE17__annotate_deleteB7v160006Ev, symObjAddr: 0x2140, symBinAddr: 0x100003440, symSize: 0xB0 }
  - { offsetInCU: 0x1E642, offset: 0x1E642, size: 0x8, addend: 0x0, symName: __ZNSt3__116reverse_iteratorIPNS_6vectorI4CellNS_9allocatorIS2_EEEEEC1B7v160006ES6_, symObjAddr: 0x2370, symBinAddr: 0x100003670, symSize: 0x30 }
  - { offsetInCU: 0x1E67A, offset: 0x1E67A, size: 0x8, addend: 0x0, symName: __ZNKSt3__116reverse_iteratorIPNS_6vectorI4CellNS_9allocatorIS2_EEEEE4baseB7v160006Ev, symObjAddr: 0x23A0, symBinAddr: 0x1000036A0, symSize: 0x20 }
  - { offsetInCU: 0x1E6A0, offset: 0x1E6A0, size: 0x8, addend: 0x0, symName: __ZNKSt3__16vectorINS0_I4CellNS_9allocatorIS1_EEEENS2_IS4_EEE14__annotate_newB7v160006Em, symObjAddr: 0x2400, symBinAddr: 0x100003700, symSize: 0xA0 }
  - { offsetInCU: 0x1E6D5, offset: 0x1E6D5, size: 0x8, addend: 0x0, symName: __ZNKSt3__16vectorINS0_I4CellNS_9allocatorIS1_EEEENS2_IS4_EEE31__annotate_contiguous_containerB7v160006EPKvS8_S8_S8_, symObjAddr: 0x24B0, symBinAddr: 0x1000037B0, symSize: 0x20 }
  - { offsetInCU: 0x1E727, offset: 0x1E727, size: 0x8, addend: 0x0, symName: __ZNKSt3__16vectorINS0_I4CellNS_9allocatorIS1_EEEENS2_IS4_EEE4dataB7v160006Ev, symObjAddr: 0x24D0, symBinAddr: 0x1000037D0, symSize: 0x20 }
  - { offsetInCU: 0x1E74D, offset: 0x1E74D, size: 0x8, addend: 0x0, symName: __ZNSt3__129_AllocatorDestroyRangeReverseINS_9allocatorINS_6vectorI4CellNS1_IS3_EEEEEENS_16reverse_iteratorIPS5_EEEC1B7v160006ERS6_RS9_SC_, symObjAddr: 0x2550, symBinAddr: 0x100003850, symSize: 0x40 }
  - { offsetInCU: 0x1E7A4, offset: 0x1E7A4, size: 0x8, addend: 0x0, symName: __ZNSt3__116allocator_traitsINS_9allocatorINS_6vectorI4CellNS1_IS3_EEEEEEE9constructB7v160006IS5_JS5_EvEEvRS6_PT_DpOT0_, symObjAddr: 0x25D0, symBinAddr: 0x1000038D0, symSize: 0x30 }
  - { offsetInCU: 0x1E7FB, offset: 0x1E7FB, size: 0x8, addend: 0x0, symName: __ZNKSt3__116reverse_iteratorIPNS_6vectorI4CellNS_9allocatorIS2_EEEEEdeB7v160006Ev, symObjAddr: 0x2620, symBinAddr: 0x100003920, symSize: 0x30 }
  - { offsetInCU: 0x1E82F, offset: 0x1E82F, size: 0x8, addend: 0x0, symName: __ZNSt3__116reverse_iteratorIPNS_6vectorI4CellNS_9allocatorIS2_EEEEEppB7v160006Ev, symObjAddr: 0x2650, symBinAddr: 0x100003950, symSize: 0x20 }
  - { offsetInCU: 0x1E855, offset: 0x1E855, size: 0x8, addend: 0x0, symName: __ZNSt3__128__exception_guard_exceptionsINS_29_AllocatorDestroyRangeReverseINS_9allocatorINS_6vectorI4CellNS2_IS4_EEEEEENS_16reverse_iteratorIPS6_EEEEE10__completeB7v160006Ev, symObjAddr: 0x2670, symBinAddr: 0x100003970, symSize: 0x20 }
  - { offsetInCU: 0x1E87B, offset: 0x1E87B, size: 0x8, addend: 0x0, symName: __ZNSt3__128__exception_guard_exceptionsINS_29_AllocatorDestroyRangeReverseINS_9allocatorINS_6vectorI4CellNS2_IS4_EEEEEENS_16reverse_iteratorIPS6_EEEEED1B7v160006Ev, symObjAddr: 0x2690, symBinAddr: 0x100003990, symSize: 0x20 }
  - { offsetInCU: 0x1E8A5, offset: 0x1E8A5, size: 0x8, addend: 0x0, symName: __ZNSt3__128__exception_guard_exceptionsINS_29_AllocatorDestroyRangeReverseINS_9allocatorINS_6vectorI4CellNS2_IS4_EEEEEENS_16reverse_iteratorIPS6_EEEEEC1B7v160006ESB_, symObjAddr: 0x26B0, symBinAddr: 0x1000039B0, symSize: 0x40 }
  - { offsetInCU: 0x1E8DD, offset: 0x1E8DD, size: 0x8, addend: 0x0, symName: __ZNSt3__128__exception_guard_exceptionsINS_29_AllocatorDestroyRangeReverseINS_9allocatorINS_6vectorI4CellNS2_IS4_EEEEEENS_16reverse_iteratorIPS6_EEEEEC2B7v160006ESB_, symObjAddr: 0x26F0, symBinAddr: 0x1000039F0, symSize: 0x30 }
  - { offsetInCU: 0x1E915, offset: 0x1E915, size: 0x8, addend: 0x0, symName: __ZNSt3__129_AllocatorDestroyRangeReverseINS_9allocatorINS_6vectorI4CellNS1_IS3_EEEEEENS_16reverse_iteratorIPS5_EEEC2B7v160006ERS6_RS9_SC_, symObjAddr: 0x2720, symBinAddr: 0x100003A20, symSize: 0x40 }
  - { offsetInCU: 0x1E96C, offset: 0x1E96C, size: 0x8, addend: 0x0, symName: __ZNSt3__19allocatorINS_6vectorI4CellNS0_IS2_EEEEE9constructB7v160006IS4_JS4_EEEvPT_DpOT0_, symObjAddr: 0x2760, symBinAddr: 0x100003A60, symSize: 0x30 }
  - { offsetInCU: 0x1E9C2, offset: 0x1E9C2, size: 0x8, addend: 0x0, symName: __ZNSt3__16vectorI4CellNS_9allocatorIS1_EEEC1B7v160006EOS4_, symObjAddr: 0x2790, symBinAddr: 0x100003A90, symSize: 0x30 }
  - { offsetInCU: 0x1E9FD, offset: 0x1E9FD, size: 0x8, addend: 0x0, symName: __ZNSt3__16vectorI4CellNS_9allocatorIS1_EEEC2B7v160006EOS4_, symObjAddr: 0x27C0, symBinAddr: 0x100003AC0, symSize: 0xE0 }
  - { offsetInCU: 0x1EA38, offset: 0x1EA38, size: 0x8, addend: 0x0, symName: __ZNSt3__16vectorI4CellNS_9allocatorIS1_EEE7__allocB7v160006Ev, symObjAddr: 0x28A0, symBinAddr: 0x100003BA0, symSize: 0x20 }
  - { offsetInCU: 0x1EA63, offset: 0x1EA63, size: 0x8, addend: 0x0, symName: __ZNSt3__117__compressed_pairIP4CellNS_9allocatorIS1_EEEC1B7v160006IDnS4_EEOT_OT0_, symObjAddr: 0x28C0, symBinAddr: 0x100003BC0, symSize: 0x30 }
  - { offsetInCU: 0x1EABB, offset: 0x1EABB, size: 0x8, addend: 0x0, symName: __ZNSt3__16vectorI4CellNS_9allocatorIS1_EEE9__end_capB7v160006Ev, symObjAddr: 0x2900, symBinAddr: 0x100003C00, symSize: 0x20 }
  - { offsetInCU: 0x1EAE1, offset: 0x1EAE1, size: 0x8, addend: 0x0, symName: __ZNSt3__117__compressed_pairIP4CellNS_9allocatorIS1_EEE6secondB7v160006Ev, symObjAddr: 0x2920, symBinAddr: 0x100003C20, symSize: 0x20 }
  - { offsetInCU: 0x1EB07, offset: 0x1EB07, size: 0x8, addend: 0x0, symName: __ZNSt3__122__compressed_pair_elemINS_9allocatorI4CellEELi1ELb1EE5__getB7v160006Ev, symObjAddr: 0x2940, symBinAddr: 0x100003C40, symSize: 0x10 }
  - { offsetInCU: 0x1EB2D, offset: 0x1EB2D, size: 0x8, addend: 0x0, symName: __ZNSt3__117__compressed_pairIP4CellNS_9allocatorIS1_EEEC2B7v160006IDnS4_EEOT_OT0_, symObjAddr: 0x2950, symBinAddr: 0x100003C50, symSize: 0x40 }
  - { offsetInCU: 0x1EB85, offset: 0x1EB85, size: 0x8, addend: 0x0, symName: __ZNSt3__122__compressed_pair_elemINS_9allocatorI4CellEELi1ELb1EEC2B7v160006IS3_vEEOT_, symObjAddr: 0x2990, symBinAddr: 0x100003C90, symSize: 0x10 }
  - { offsetInCU: 0x1EBC7, offset: 0x1EBC7, size: 0x8, addend: 0x0, symName: __ZNSt3__117__compressed_pairIP4CellNS_9allocatorIS1_EEE5firstB7v160006Ev, symObjAddr: 0x29A0, symBinAddr: 0x100003CA0, symSize: 0x20 }
  - { offsetInCU: 0x1EBED, offset: 0x1EBED, size: 0x8, addend: 0x0, symName: __ZNSt3__122__compressed_pair_elemIP4CellLi0ELb0EE5__getB7v160006Ev, symObjAddr: 0x29C0, symBinAddr: 0x100003CC0, symSize: 0x10 }
  - { offsetInCU: 0x1EC18, offset: 0x1EC18, size: 0x8, addend: 0x0, symName: __ZNSt3__119__to_address_helperINS_16reverse_iteratorIPNS_6vectorI4CellNS_9allocatorIS3_EEEEEEvE6__callB7v160006ERKS8_, symObjAddr: 0x29D0, symBinAddr: 0x100003CD0, symSize: 0x40 }
  - { offsetInCU: 0x1EC3B, offset: 0x1EC3B, size: 0x8, addend: 0x0, symName: __ZNKSt3__116reverse_iteratorIPNS_6vectorI4CellNS_9allocatorIS2_EEEEEptB7v160006Ev, symObjAddr: 0x2A10, symBinAddr: 0x100003D10, symSize: 0x20 }
  - { offsetInCU: 0x1EC61, offset: 0x1EC61, size: 0x8, addend: 0x0, symName: __ZNSt3__128__exception_guard_exceptionsINS_29_AllocatorDestroyRangeReverseINS_9allocatorINS_6vectorI4CellNS2_IS4_EEEEEENS_16reverse_iteratorIPS6_EEEEED2B7v160006Ev, symObjAddr: 0x2A30, symBinAddr: 0x100003D30, symSize: 0x40 }
  - { offsetInCU: 0x1EC8B, offset: 0x1EC8B, size: 0x8, addend: 0x0, symName: __ZNKSt3__129_AllocatorDestroyRangeReverseINS_9allocatorINS_6vectorI4CellNS1_IS3_EEEEEENS_16reverse_iteratorIPS5_EEEclB7v160006Ev, symObjAddr: 0x2A70, symBinAddr: 0x100003D70, symSize: 0xF0 }
  - { offsetInCU: 0x1ECB2, offset: 0x1ECB2, size: 0x8, addend: 0x0, symName: __ZNSt3__116reverse_iteratorINS0_IPNS_6vectorI4CellNS_9allocatorIS2_EEEEEEEC1B7v160006ES7_, symObjAddr: 0x2BD0, symBinAddr: 0x100003ED0, symSize: 0x30 }
  - { offsetInCU: 0x1ECEA, offset: 0x1ECEA, size: 0x8, addend: 0x0, symName: __ZNSt3__116allocator_traitsINS_9allocatorINS_6vectorI4CellNS1_IS3_EEEEEEE7destroyB7v160006IS5_vEEvRS6_PT_, symObjAddr: 0x2C50, symBinAddr: 0x100003F50, symSize: 0x30 }
  - { offsetInCU: 0x1ED27, offset: 0x1ED27, size: 0x8, addend: 0x0, symName: __ZNSt3__116reverse_iteratorINS0_IPNS_6vectorI4CellNS_9allocatorIS2_EEEEEEEppB7v160006Ev, symObjAddr: 0x2CA0, symBinAddr: 0x100003FA0, symSize: 0x30 }
  - { offsetInCU: 0x1ED4D, offset: 0x1ED4D, size: 0x8, addend: 0x0, symName: __ZNKSt3__116reverse_iteratorINS0_IPNS_6vectorI4CellNS_9allocatorIS2_EEEEEEE4baseB7v160006Ev, symObjAddr: 0x2CD0, symBinAddr: 0x100003FD0, symSize: 0x20 }
  - { offsetInCU: 0x1ED73, offset: 0x1ED73, size: 0x8, addend: 0x0, symName: __ZNSt3__19allocatorINS_6vectorI4CellNS0_IS2_EEEEE7destroyB7v160006EPS4_, symObjAddr: 0x2CF0, symBinAddr: 0x100003FF0, symSize: 0x20 }
  - { offsetInCU: 0x1EDA7, offset: 0x1EDA7, size: 0x8, addend: 0x0, symName: __ZNSt3__16vectorI4CellNS_9allocatorIS1_EEED1B7v160006Ev, symObjAddr: 0x2D10, symBinAddr: 0x100004010, symSize: 0x20 }
  - { offsetInCU: 0x1EDD1, offset: 0x1EDD1, size: 0x8, addend: 0x0, symName: __ZNSt3__16vectorI4CellNS_9allocatorIS1_EEED2B7v160006Ev, symObjAddr: 0x2D30, symBinAddr: 0x100004030, symSize: 0x40 }
  - { offsetInCU: 0x1EDFB, offset: 0x1EDFB, size: 0x8, addend: 0x0, symName: __ZNSt3__16vectorI4CellNS_9allocatorIS1_EEE16__destroy_vectorC1ERS4_, symObjAddr: 0x2D70, symBinAddr: 0x100004070, symSize: 0x30 }
  - { offsetInCU: 0x1EE34, offset: 0x1EE34, size: 0x8, addend: 0x0, symName: __ZNSt3__16vectorI4CellNS_9allocatorIS1_EEE16__destroy_vectorclB7v160006Ev, symObjAddr: 0x2DA0, symBinAddr: 0x1000040A0, symSize: 0x90 }
  - { offsetInCU: 0x1EE5A, offset: 0x1EE5A, size: 0x8, addend: 0x0, symName: __ZNSt3__16vectorI4CellNS_9allocatorIS1_EEE16__destroy_vectorC2ERS4_, symObjAddr: 0x2E30, symBinAddr: 0x100004130, symSize: 0x20 }
  - { offsetInCU: 0x1EE93, offset: 0x1EE93, size: 0x8, addend: 0x0, symName: __ZNKSt3__16vectorI4CellNS_9allocatorIS1_EEE17__annotate_deleteB7v160006Ev, symObjAddr: 0x2E50, symBinAddr: 0x100004150, symSize: 0xC0 }
  - { offsetInCU: 0x1EEB9, offset: 0x1EEB9, size: 0x8, addend: 0x0, symName: __ZNSt3__16vectorI4CellNS_9allocatorIS1_EEE7__clearB7v160006Ev, symObjAddr: 0x2F20, symBinAddr: 0x100004220, symSize: 0x20 }
  - { offsetInCU: 0x1EEDF, offset: 0x1EEDF, size: 0x8, addend: 0x0, symName: __ZNSt3__116allocator_traitsINS_9allocatorI4CellEEE10deallocateB7v160006ERS3_PS2_m, symObjAddr: 0x2F40, symBinAddr: 0x100004240, symSize: 0x30 }
  - { offsetInCU: 0x1EF21, offset: 0x1EF21, size: 0x8, addend: 0x0, symName: __ZNKSt3__16vectorI4CellNS_9allocatorIS1_EEE8capacityB7v160006Ev, symObjAddr: 0x2F70, symBinAddr: 0x100004270, symSize: 0x40 }
  - { offsetInCU: 0x1EF47, offset: 0x1EF47, size: 0x8, addend: 0x0, symName: __ZNKSt3__16vectorI4CellNS_9allocatorIS1_EEE31__annotate_contiguous_containerB7v160006EPKvS6_S6_S6_, symObjAddr: 0x2FB0, symBinAddr: 0x1000042B0, symSize: 0x20 }
  - { offsetInCU: 0x1EF99, offset: 0x1EF99, size: 0x8, addend: 0x0, symName: __ZNKSt3__16vectorI4CellNS_9allocatorIS1_EEE4dataB7v160006Ev, symObjAddr: 0x2FD0, symBinAddr: 0x1000042D0, symSize: 0x20 }
  - { offsetInCU: 0x1EFBF, offset: 0x1EFBF, size: 0x8, addend: 0x0, symName: __ZNKSt3__16vectorI4CellNS_9allocatorIS1_EEE4sizeB7v160006Ev, symObjAddr: 0x2FF0, symBinAddr: 0x1000042F0, symSize: 0x30 }
  - { offsetInCU: 0x1EFE5, offset: 0x1EFE5, size: 0x8, addend: 0x0, symName: __ZNSt3__16vectorI4CellNS_9allocatorIS1_EEE22__base_destruct_at_endB7v160006EPS1_, symObjAddr: 0x3030, symBinAddr: 0x100004330, symSize: 0x80 }
  - { offsetInCU: 0x1F029, offset: 0x1F029, size: 0x8, addend: 0x0, symName: __ZNSt3__116allocator_traitsINS_9allocatorI4CellEEE7destroyB7v160006IS2_vEEvRS3_PT_, symObjAddr: 0x30B0, symBinAddr: 0x1000043B0, symSize: 0x30 }
  - { offsetInCU: 0x1F066, offset: 0x1F066, size: 0x8, addend: 0x0, symName: __ZNSt3__19allocatorI4CellE7destroyB7v160006EPS1_, symObjAddr: 0x30E0, symBinAddr: 0x1000043E0, symSize: 0x20 }
  - { offsetInCU: 0x1F09A, offset: 0x1F09A, size: 0x8, addend: 0x0, symName: __ZNSt3__19allocatorI4CellE10deallocateB7v160006EPS1_m, symObjAddr: 0x3100, symBinAddr: 0x100004400, symSize: 0x40 }
  - { offsetInCU: 0x1F0DC, offset: 0x1F0DC, size: 0x8, addend: 0x0, symName: __ZNKSt3__16vectorI4CellNS_9allocatorIS1_EEE9__end_capB7v160006Ev, symObjAddr: 0x3240, symBinAddr: 0x100004540, symSize: 0x20 }
  - { offsetInCU: 0x1F102, offset: 0x1F102, size: 0x8, addend: 0x0, symName: __ZNKSt3__117__compressed_pairIP4CellNS_9allocatorIS1_EEE5firstB7v160006Ev, symObjAddr: 0x3260, symBinAddr: 0x100004560, symSize: 0x20 }
  - { offsetInCU: 0x1F128, offset: 0x1F128, size: 0x8, addend: 0x0, symName: __ZNKSt3__122__compressed_pair_elemIP4CellLi0ELb0EE5__getB7v160006Ev, symObjAddr: 0x3280, symBinAddr: 0x100004580, symSize: 0x10 }
  - { offsetInCU: 0x1F153, offset: 0x1F153, size: 0x8, addend: 0x0, symName: __ZNSt3__119__to_address_helperINS_16reverse_iteratorINS1_IPNS_6vectorI4CellNS_9allocatorIS3_EEEEEEEEvE6__callB7v160006ERKS9_, symObjAddr: 0x3290, symBinAddr: 0x100004590, symSize: 0x40 }
  - { offsetInCU: 0x1F176, offset: 0x1F176, size: 0x8, addend: 0x0, symName: __ZNKSt3__116reverse_iteratorINS0_IPNS_6vectorI4CellNS_9allocatorIS2_EEEEEEEptB7v160006Ev, symObjAddr: 0x32D0, symBinAddr: 0x1000045D0, symSize: 0x20 }
  - { offsetInCU: 0x1F19C, offset: 0x1F19C, size: 0x8, addend: 0x0, symName: __ZNKSt3__116reverse_iteratorINS0_IPNS_6vectorI4CellNS_9allocatorIS2_EEEEEEEdeB7v160006Ev, symObjAddr: 0x32F0, symBinAddr: 0x1000045F0, symSize: 0x40 }
  - { offsetInCU: 0x1F1D0, offset: 0x1F1D0, size: 0x8, addend: 0x0, symName: __ZNSt3__116reverse_iteratorIPNS_6vectorI4CellNS_9allocatorIS2_EEEEEmmB7v160006Ev, symObjAddr: 0x3330, symBinAddr: 0x100004630, symSize: 0x20 }
  - { offsetInCU: 0x1F1F6, offset: 0x1F1F6, size: 0x8, addend: 0x0, symName: __ZNSt3__116reverse_iteratorINS0_IPNS_6vectorI4CellNS_9allocatorIS2_EEEEEEEC2B7v160006ES7_, symObjAddr: 0x3350, symBinAddr: 0x100004650, symSize: 0x40 }
  - { offsetInCU: 0x1F22E, offset: 0x1F22E, size: 0x8, addend: 0x0, symName: __ZNSt3__116reverse_iteratorIPNS_6vectorI4CellNS_9allocatorIS2_EEEEEC2B7v160006ES6_, symObjAddr: 0x3390, symBinAddr: 0x100004690, symSize: 0x30 }
  - { offsetInCU: 0x1F266, offset: 0x1F266, size: 0x8, addend: 0x0, symName: __ZNSt3__114__split_bufferINS_6vectorI4CellNS_9allocatorIS2_EEEERNS3_IS5_EEED2Ev, symObjAddr: 0x33C0, symBinAddr: 0x1000046C0, symSize: 0x70 }
  - { offsetInCU: 0x1F292, offset: 0x1F292, size: 0x8, addend: 0x0, symName: __ZNSt3__114__split_bufferINS_6vectorI4CellNS_9allocatorIS2_EEEERNS3_IS5_EEE5clearB7v160006Ev, symObjAddr: 0x3430, symBinAddr: 0x100004730, symSize: 0x20 }
  - { offsetInCU: 0x1F2B8, offset: 0x1F2B8, size: 0x8, addend: 0x0, symName: __ZNSt3__116allocator_traitsINS_9allocatorINS_6vectorI4CellNS1_IS3_EEEEEEE10deallocateB7v160006ERS6_PS5_m, symObjAddr: 0x3450, symBinAddr: 0x100004750, symSize: 0x30 }
  - { offsetInCU: 0x1F2FA, offset: 0x1F2FA, size: 0x8, addend: 0x0, symName: __ZNKSt3__114__split_bufferINS_6vectorI4CellNS_9allocatorIS2_EEEERNS3_IS5_EEE8capacityB7v160006Ev, symObjAddr: 0x3480, symBinAddr: 0x100004780, symSize: 0x40 }
  - { offsetInCU: 0x1F320, offset: 0x1F320, size: 0x8, addend: 0x0, symName: __ZNSt3__114__split_bufferINS_6vectorI4CellNS_9allocatorIS2_EEEERNS3_IS5_EEE17__destruct_at_endB7v160006EPS5_, symObjAddr: 0x34C0, symBinAddr: 0x1000047C0, symSize: 0x30 }
  - { offsetInCU: 0x1F354, offset: 0x1F354, size: 0x8, addend: 0x0, symName: __ZNSt3__114__split_bufferINS_6vectorI4CellNS_9allocatorIS2_EEEERNS3_IS5_EEE17__destruct_at_endB7v160006EPS5_NS_17integral_constantIbLb0EEE, symObjAddr: 0x34F0, symBinAddr: 0x1000047F0, symSize: 0x80 }
  - { offsetInCU: 0x1F394, offset: 0x1F394, size: 0x8, addend: 0x0, symName: __ZNSt3__19allocatorINS_6vectorI4CellNS0_IS2_EEEEE10deallocateB7v160006EPS4_m, symObjAddr: 0x3570, symBinAddr: 0x100004870, symSize: 0x50 }
  - { offsetInCU: 0x1F3D6, offset: 0x1F3D6, size: 0x8, addend: 0x0, symName: __ZNKSt3__114__split_bufferINS_6vectorI4CellNS_9allocatorIS2_EEEERNS3_IS5_EEE9__end_capB7v160006Ev, symObjAddr: 0x35C0, symBinAddr: 0x1000048C0, symSize: 0x20 }
  - { offsetInCU: 0x1F3FC, offset: 0x1F3FC, size: 0x8, addend: 0x0, symName: __ZNKSt3__117__compressed_pairIPNS_6vectorI4CellNS_9allocatorIS2_EEEERNS3_IS5_EEE5firstB7v160006Ev, symObjAddr: 0x35E0, symBinAddr: 0x1000048E0, symSize: 0x20 }
  - { offsetInCU: 0x1F422, offset: 0x1F422, size: 0x8, addend: 0x0, symName: __ZNSt3__16vectorINS0_I4CellNS_9allocatorIS1_EEEENS2_IS4_EEE27__invalidate_iterators_pastB7v160006EPS4_, symObjAddr: 0x3600, symBinAddr: 0x100004900, symSize: 0x10 }
  - { offsetInCU: 0x1F459, offset: 0x1F459, size: 0x8, addend: 0x0, symName: __ZNSt3__16vectorINS0_I4CellNS_9allocatorIS1_EEEENS2_IS4_EEE22__base_destruct_at_endB7v160006EPS4_, symObjAddr: 0x3610, symBinAddr: 0x100004910, symSize: 0x80 }
  - { offsetInCU: 0x1F49D, offset: 0x1F49D, size: 0x8, addend: 0x0, symName: __ZNKSt3__16vectorINS0_I4CellNS_9allocatorIS1_EEEENS2_IS4_EEE17__annotate_shrinkB7v160006Em, symObjAddr: 0x3690, symBinAddr: 0x100004990, symSize: 0xA0 }
  - { offsetInCU: 0x1F4D2, offset: 0x1F4D2, size: 0x8, addend: 0x0, symName: __ZNSt3__16vectorI4CellNS_9allocatorIS1_EEE8__appendEm, symObjAddr: 0x3730, symBinAddr: 0x100004A30, symSize: 0x100 }
  - { offsetInCU: 0x1F52E, offset: 0x1F52E, size: 0x8, addend: 0x0, symName: __ZNSt3__16vectorI4CellNS_9allocatorIS1_EEE17__destruct_at_endB7v160006EPS1_, symObjAddr: 0x3830, symBinAddr: 0x100004B30, symSize: 0x60 }
  - { offsetInCU: 0x1F572, offset: 0x1F572, size: 0x8, addend: 0x0, symName: __ZNSt3__16vectorI4CellNS_9allocatorIS1_EEE18__construct_at_endEm, symObjAddr: 0x3890, symBinAddr: 0x100004B90, symSize: 0xC0 }
  - { offsetInCU: 0x1F5E4, offset: 0x1F5E4, size: 0x8, addend: 0x0, symName: __ZNKSt3__16vectorI4CellNS_9allocatorIS1_EEE11__recommendB7v160006Em, symObjAddr: 0x3950, symBinAddr: 0x100004C50, symSize: 0xA0 }
  - { offsetInCU: 0x1F639, offset: 0x1F639, size: 0x8, addend: 0x0, symName: __ZNSt3__114__split_bufferI4CellRNS_9allocatorIS1_EEEC1EmmS4_, symObjAddr: 0x39F0, symBinAddr: 0x100004CF0, symSize: 0x40 }
  - { offsetInCU: 0x1F68F, offset: 0x1F68F, size: 0x8, addend: 0x0, symName: __ZNSt3__114__split_bufferI4CellRNS_9allocatorIS1_EEE18__construct_at_endEm, symObjAddr: 0x3A30, symBinAddr: 0x100004D30, symSize: 0xB0 }
  - { offsetInCU: 0x1F6D2, offset: 0x1F6D2, size: 0x8, addend: 0x0, symName: __ZNSt3__114__split_bufferI4CellRNS_9allocatorIS1_EEED1Ev, symObjAddr: 0x3C10, symBinAddr: 0x100004F10, symSize: 0x20 }
  - { offsetInCU: 0x1F717, offset: 0x1F717, size: 0x8, addend: 0x0, symName: __ZNSt3__16vectorI4CellNS_9allocatorIS1_EEE21_ConstructTransactionC1B7v160006ERS4_m, symObjAddr: 0x3C30, symBinAddr: 0x100004F30, symSize: 0x30 }
  - { offsetInCU: 0x1F75F, offset: 0x1F75F, size: 0x8, addend: 0x0, symName: __ZNSt3__116allocator_traitsINS_9allocatorI4CellEEE9constructB7v160006IS2_JEvEEvRS3_PT_DpOT0_, symObjAddr: 0x3C60, symBinAddr: 0x100004F60, symSize: 0x30 }
  - { offsetInCU: 0x1F7A1, offset: 0x1F7A1, size: 0x8, addend: 0x0, symName: __ZNSt3__16vectorI4CellNS_9allocatorIS1_EEE21_ConstructTransactionD1B7v160006Ev, symObjAddr: 0x3C90, symBinAddr: 0x100004F90, symSize: 0x20 }
  - { offsetInCU: 0x1F7CB, offset: 0x1F7CB, size: 0x8, addend: 0x0, symName: __ZNSt3__16vectorI4CellNS_9allocatorIS1_EEE21_ConstructTransactionC2B7v160006ERS4_m, symObjAddr: 0x3CB0, symBinAddr: 0x100004FB0, symSize: 0x40 }
  - { offsetInCU: 0x1F813, offset: 0x1F813, size: 0x8, addend: 0x0, symName: __ZNSt3__19allocatorI4CellE9constructB7v160006IS1_JEEEvPT_DpOT0_, symObjAddr: 0x3CF0, symBinAddr: 0x100004FF0, symSize: 0x40 }
  - { offsetInCU: 0x1F855, offset: 0x1F855, size: 0x8, addend: 0x0, symName: __ZN4CellC1Ev, symObjAddr: 0x3D30, symBinAddr: 0x100005030, symSize: 0x20 }
  - { offsetInCU: 0x1F87F, offset: 0x1F87F, size: 0x8, addend: 0x0, symName: __ZN4CellC2Ev, symObjAddr: 0x3D50, symBinAddr: 0x100005050, symSize: 0xC0 }
  - { offsetInCU: 0x1F8A9, offset: 0x1F8A9, size: 0x8, addend: 0x0, symName: __ZN2sf14RectangleShapeD1Ev, symObjAddr: 0x3E10, symBinAddr: 0x100005110, symSize: 0x20 }
  - { offsetInCU: 0x1F8D5, offset: 0x1F8D5, size: 0x8, addend: 0x0, symName: __ZN2sf14RectangleShapeD2Ev, symObjAddr: 0x3E30, symBinAddr: 0x100005130, symSize: 0x20 }
  - { offsetInCU: 0x1F901, offset: 0x1F901, size: 0x8, addend: 0x0, symName: __ZThn8_N2sf14RectangleShapeD1Ev, symObjAddr: 0x3E50, symBinAddr: 0x100005150, symSize: 0x20 }
  - { offsetInCU: 0x1F917, offset: 0x1F917, size: 0x8, addend: 0x0, symName: __ZNSt3__16vectorI4CellNS_9allocatorIS1_EEE21_ConstructTransactionD2B7v160006Ev, symObjAddr: 0x3E70, symBinAddr: 0x100005170, symSize: 0x20 }
  - { offsetInCU: 0x1F941, offset: 0x1F941, size: 0x8, addend: 0x0, symName: __ZNKSt3__16vectorI4CellNS_9allocatorIS1_EEE8max_sizeEv, symObjAddr: 0x3E90, symBinAddr: 0x100005190, symSize: 0x60 }
  - { offsetInCU: 0x1F969, offset: 0x1F969, size: 0x8, addend: 0x0, symName: __ZNKSt3__16vectorI4CellNS_9allocatorIS1_EEE20__throw_length_errorB7v160006Ev, symObjAddr: 0x3EF0, symBinAddr: 0x1000051F0, symSize: 0x20 }
  - { offsetInCU: 0x1F999, offset: 0x1F999, size: 0x8, addend: 0x0, symName: __ZNSt3__116allocator_traitsINS_9allocatorI4CellEEE8max_sizeB7v160006IS3_vEEmRKS3_, symObjAddr: 0x3F10, symBinAddr: 0x100005210, symSize: 0x20 }
  - { offsetInCU: 0x1F9C7, offset: 0x1F9C7, size: 0x8, addend: 0x0, symName: __ZNKSt3__16vectorI4CellNS_9allocatorIS1_EEE7__allocB7v160006Ev, symObjAddr: 0x3F30, symBinAddr: 0x100005230, symSize: 0x20 }
  - { offsetInCU: 0x1F9ED, offset: 0x1F9ED, size: 0x8, addend: 0x0, symName: __ZNKSt3__19allocatorI4CellE8max_sizeB7v160006Ev, symObjAddr: 0x3F50, symBinAddr: 0x100005250, symSize: 0x20 }
  - { offsetInCU: 0x1FA13, offset: 0x1FA13, size: 0x8, addend: 0x0, symName: __ZNKSt3__117__compressed_pairIP4CellNS_9allocatorIS1_EEE6secondB7v160006Ev, symObjAddr: 0x3F70, symBinAddr: 0x100005270, symSize: 0x20 }
  - { offsetInCU: 0x1FA39, offset: 0x1FA39, size: 0x8, addend: 0x0, symName: __ZNKSt3__122__compressed_pair_elemINS_9allocatorI4CellEELi1ELb1EE5__getB7v160006Ev, symObjAddr: 0x3F90, symBinAddr: 0x100005290, symSize: 0x10 }
  - { offsetInCU: 0x1FA5F, offset: 0x1FA5F, size: 0x8, addend: 0x0, symName: __ZNSt3__114__split_bufferI4CellRNS_9allocatorIS1_EEEC2EmmS4_, symObjAddr: 0x3FA0, symBinAddr: 0x1000052A0, symSize: 0xD0 }
  - { offsetInCU: 0x1FAD2, offset: 0x1FAD2, size: 0x8, addend: 0x0, symName: __ZNSt3__117__compressed_pairIP4CellRNS_9allocatorIS1_EEEC1B7v160006IDnS5_EEOT_OT0_, symObjAddr: 0x4070, symBinAddr: 0x100005370, symSize: 0x30 }
  - { offsetInCU: 0x1FB2A, offset: 0x1FB2A, size: 0x8, addend: 0x0, symName: __ZNSt3__114__split_bufferI4CellRNS_9allocatorIS1_EEE7__allocB7v160006Ev, symObjAddr: 0x40E0, symBinAddr: 0x1000053E0, symSize: 0x20 }
  - { offsetInCU: 0x1FB50, offset: 0x1FB50, size: 0x8, addend: 0x0, symName: __ZNSt3__114__split_bufferI4CellRNS_9allocatorIS1_EEE9__end_capB7v160006Ev, symObjAddr: 0x4100, symBinAddr: 0x100005400, symSize: 0x20 }
  - { offsetInCU: 0x1FB76, offset: 0x1FB76, size: 0x8, addend: 0x0, symName: __ZNSt3__117__compressed_pairIP4CellRNS_9allocatorIS1_EEEC2B7v160006IDnS5_EEOT_OT0_, symObjAddr: 0x4120, symBinAddr: 0x100005420, symSize: 0x40 }
  - { offsetInCU: 0x1FBCE, offset: 0x1FBCE, size: 0x8, addend: 0x0, symName: __ZNSt3__122__compressed_pair_elemIRNS_9allocatorI4CellEELi1ELb0EEC2B7v160006IS4_vEEOT_, symObjAddr: 0x4160, symBinAddr: 0x100005460, symSize: 0x20 }
  - { offsetInCU: 0x1FC10, offset: 0x1FC10, size: 0x8, addend: 0x0, symName: __ZNSt3__19allocatorI4CellE8allocateB7v160006Em, symObjAddr: 0x4180, symBinAddr: 0x100005480, symSize: 0x50 }
  - { offsetInCU: 0x1FC44, offset: 0x1FC44, size: 0x8, addend: 0x0, symName: __ZNSt3__117__compressed_pairIP4CellRNS_9allocatorIS1_EEE6secondB7v160006Ev, symObjAddr: 0x41D0, symBinAddr: 0x1000054D0, symSize: 0x20 }
  - { offsetInCU: 0x1FC6A, offset: 0x1FC6A, size: 0x8, addend: 0x0, symName: __ZNSt3__122__compressed_pair_elemIRNS_9allocatorI4CellEELi1ELb0EE5__getB7v160006Ev, symObjAddr: 0x41F0, symBinAddr: 0x1000054F0, symSize: 0x20 }
  - { offsetInCU: 0x1FC90, offset: 0x1FC90, size: 0x8, addend: 0x0, symName: __ZNSt3__117__compressed_pairIP4CellRNS_9allocatorIS1_EEE5firstB7v160006Ev, symObjAddr: 0x4210, symBinAddr: 0x100005510, symSize: 0x20 }
  - { offsetInCU: 0x1FCC0, offset: 0x1FCC0, size: 0x8, addend: 0x0, symName: __ZNSt3__114__split_bufferI4CellRNS_9allocatorIS1_EEE21_ConstructTransactionC1B7v160006EPPS1_m, symObjAddr: 0x4230, symBinAddr: 0x100005530, symSize: 0x30 }
  - { offsetInCU: 0x1FD06, offset: 0x1FD06, size: 0x8, addend: 0x0, symName: __ZNSt3__114__split_bufferI4CellRNS_9allocatorIS1_EEE21_ConstructTransactionD1B7v160006Ev, symObjAddr: 0x4260, symBinAddr: 0x100005560, symSize: 0x20 }
  - { offsetInCU: 0x1FD30, offset: 0x1FD30, size: 0x8, addend: 0x0, symName: __ZNSt3__114__split_bufferI4CellRNS_9allocatorIS1_EEE21_ConstructTransactionC2B7v160006EPPS1_m, symObjAddr: 0x4280, symBinAddr: 0x100005580, symSize: 0x40 }
  - { offsetInCU: 0x1FD76, offset: 0x1FD76, size: 0x8, addend: 0x0, symName: __ZNSt3__114__split_bufferI4CellRNS_9allocatorIS1_EEE21_ConstructTransactionD2B7v160006Ev, symObjAddr: 0x42C0, symBinAddr: 0x1000055C0, symSize: 0x20 }
  - { offsetInCU: 0x1FDA0, offset: 0x1FDA0, size: 0x8, addend: 0x0, symName: __ZNSt3__116reverse_iteratorIP4CellEC1B7v160006ES2_, symObjAddr: 0x4460, symBinAddr: 0x100005760, symSize: 0x30 }
  - { offsetInCU: 0x1FDD8, offset: 0x1FDD8, size: 0x8, addend: 0x0, symName: __ZNKSt3__116reverse_iteratorIP4CellE4baseB7v160006Ev, symObjAddr: 0x4490, symBinAddr: 0x100005790, symSize: 0x20 }
  - { offsetInCU: 0x1FDFE, offset: 0x1FDFE, size: 0x8, addend: 0x0, symName: __ZNKSt3__16vectorI4CellNS_9allocatorIS1_EEE14__annotate_newB7v160006Em, symObjAddr: 0x44F0, symBinAddr: 0x1000057F0, symSize: 0xB0 }
  - { offsetInCU: 0x1FE33, offset: 0x1FE33, size: 0x8, addend: 0x0, symName: __ZNSt3__129_AllocatorDestroyRangeReverseINS_9allocatorI4CellEENS_16reverse_iteratorIPS2_EEEC1B7v160006ERS3_RS6_S9_, symObjAddr: 0x4610, symBinAddr: 0x100005910, symSize: 0x40 }
  - { offsetInCU: 0x1FE8A, offset: 0x1FE8A, size: 0x8, addend: 0x0, symName: __ZNSt3__116allocator_traitsINS_9allocatorI4CellEEE9constructB7v160006IS2_JRKS2_EvEEvRS3_PT_DpOT0_, symObjAddr: 0x4690, symBinAddr: 0x100005990, symSize: 0x30 }
  - { offsetInCU: 0x1FEE1, offset: 0x1FEE1, size: 0x8, addend: 0x0, symName: __ZNKSt3__116reverse_iteratorIP4CellEdeB7v160006Ev, symObjAddr: 0x46E0, symBinAddr: 0x1000059E0, symSize: 0x30 }
  - { offsetInCU: 0x1FF15, offset: 0x1FF15, size: 0x8, addend: 0x0, symName: __ZNSt3__116reverse_iteratorIP4CellEppB7v160006Ev, symObjAddr: 0x4710, symBinAddr: 0x100005A10, symSize: 0x20 }
  - { offsetInCU: 0x1FF3B, offset: 0x1FF3B, size: 0x8, addend: 0x0, symName: __ZNSt3__128__exception_guard_exceptionsINS_29_AllocatorDestroyRangeReverseINS_9allocatorI4CellEENS_16reverse_iteratorIPS3_EEEEE10__completeB7v160006Ev, symObjAddr: 0x4730, symBinAddr: 0x100005A30, symSize: 0x20 }
  - { offsetInCU: 0x1FF61, offset: 0x1FF61, size: 0x8, addend: 0x0, symName: __ZNSt3__128__exception_guard_exceptionsINS_29_AllocatorDestroyRangeReverseINS_9allocatorI4CellEENS_16reverse_iteratorIPS3_EEEEED1B7v160006Ev, symObjAddr: 0x4750, symBinAddr: 0x100005A50, symSize: 0x20 }
  - { offsetInCU: 0x1FF8B, offset: 0x1FF8B, size: 0x8, addend: 0x0, symName: __ZNSt3__128__exception_guard_exceptionsINS_29_AllocatorDestroyRangeReverseINS_9allocatorI4CellEENS_16reverse_iteratorIPS3_EEEEEC1B7v160006ES8_, symObjAddr: 0x4770, symBinAddr: 0x100005A70, symSize: 0x40 }
  - { offsetInCU: 0x1FFC3, offset: 0x1FFC3, size: 0x8, addend: 0x0, symName: __ZNSt3__128__exception_guard_exceptionsINS_29_AllocatorDestroyRangeReverseINS_9allocatorI4CellEENS_16reverse_iteratorIPS3_EEEEEC2B7v160006ES8_, symObjAddr: 0x47B0, symBinAddr: 0x100005AB0, symSize: 0x30 }
  - { offsetInCU: 0x1FFFB, offset: 0x1FFFB, size: 0x8, addend: 0x0, symName: __ZNSt3__129_AllocatorDestroyRangeReverseINS_9allocatorI4CellEENS_16reverse_iteratorIPS2_EEEC2B7v160006ERS3_RS6_S9_, symObjAddr: 0x47E0, symBinAddr: 0x100005AE0, symSize: 0x40 }
  - { offsetInCU: 0x20052, offset: 0x20052, size: 0x8, addend: 0x0, symName: __ZNSt3__19allocatorI4CellE9constructB7v160006IS1_JRKS1_EEEvPT_DpOT0_, symObjAddr: 0x4820, symBinAddr: 0x100005B20, symSize: 0x30 }
  - { offsetInCU: 0x200A8, offset: 0x200A8, size: 0x8, addend: 0x0, symName: __ZN4CellC1ERKS_, symObjAddr: 0x4850, symBinAddr: 0x100005B50, symSize: 0x30 }
  - { offsetInCU: 0x200DD, offset: 0x200DD, size: 0x8, addend: 0x0, symName: __ZN4CellC2ERKS_, symObjAddr: 0x4880, symBinAddr: 0x100005B80, symSize: 0xC0 }
  - { offsetInCU: 0x20117, offset: 0x20117, size: 0x8, addend: 0x0, symName: __ZN2sf14RectangleShapeC1ERKS0_, symObjAddr: 0x4940, symBinAddr: 0x100005C40, symSize: 0x30 }
  - { offsetInCU: 0x20151, offset: 0x20151, size: 0x8, addend: 0x0, symName: __ZN2sf11CircleShapeC1ERKS0_, symObjAddr: 0x4970, symBinAddr: 0x100005C70, symSize: 0x30 }
  - { offsetInCU: 0x20186, offset: 0x20186, size: 0x8, addend: 0x0, symName: __ZN2sf14RectangleShapeC2ERKS0_, symObjAddr: 0x49A0, symBinAddr: 0x100005CA0, symSize: 0x60 }
  - { offsetInCU: 0x201C0, offset: 0x201C0, size: 0x8, addend: 0x0, symName: __ZN2sf5ShapeC2ERKS0_, symObjAddr: 0x4A00, symBinAddr: 0x100005D00, symSize: 0x150 }
  - { offsetInCU: 0x201F5, offset: 0x201F5, size: 0x8, addend: 0x0, symName: __ZN2sf8DrawableC2ERKS0_, symObjAddr: 0x4B50, symBinAddr: 0x100005E50, symSize: 0x20 }
  - { offsetInCU: 0x2022F, offset: 0x2022F, size: 0x8, addend: 0x0, symName: __ZN2sf13TransformableC2ERKS0_, symObjAddr: 0x4B70, symBinAddr: 0x100005E70, symSize: 0x40 }
  - { offsetInCU: 0x20269, offset: 0x20269, size: 0x8, addend: 0x0, symName: __ZN2sf11VertexArrayC1ERKS0_, symObjAddr: 0x4BB0, symBinAddr: 0x100005EB0, symSize: 0x30 }
  - { offsetInCU: 0x2029E, offset: 0x2029E, size: 0x8, addend: 0x0, symName: __ZN2sf11VertexArrayD1Ev, symObjAddr: 0x4BE0, symBinAddr: 0x100005EE0, symSize: 0x20 }
  - { offsetInCU: 0x202CA, offset: 0x202CA, size: 0x8, addend: 0x0, symName: __ZN2sf8DrawableD2Ev, symObjAddr: 0x4C00, symBinAddr: 0x100005F00, symSize: 0x10 }
  - { offsetInCU: 0x202F4, offset: 0x202F4, size: 0x8, addend: 0x0, symName: __ZN2sf8DrawableD1Ev, symObjAddr: 0x4C10, symBinAddr: 0x100005F10, symSize: 0x10 }
  - { offsetInCU: 0x2031E, offset: 0x2031E, size: 0x8, addend: 0x0, symName: __ZN2sf8DrawableD0Ev, symObjAddr: 0x4C20, symBinAddr: 0x100005F20, symSize: 0x10 }
  - { offsetInCU: 0x20348, offset: 0x20348, size: 0x8, addend: 0x0, symName: __ZN2sf11VertexArrayC2ERKS0_, symObjAddr: 0x4C30, symBinAddr: 0x100005F30, symSize: 0x80 }
  - { offsetInCU: 0x2037D, offset: 0x2037D, size: 0x8, addend: 0x0, symName: __ZNSt3__16vectorIN2sf6VertexENS_9allocatorIS2_EEEC1ERKS5_, symObjAddr: 0x4CB0, symBinAddr: 0x100005FB0, symSize: 0x30 }
  - { offsetInCU: 0x203B8, offset: 0x203B8, size: 0x8, addend: 0x0, symName: __ZNSt3__16vectorIN2sf6VertexENS_9allocatorIS2_EEEC2ERKS5_, symObjAddr: 0x4CE0, symBinAddr: 0x100005FE0, symSize: 0x110 }
  - { offsetInCU: 0x20423, offset: 0x20423, size: 0x8, addend: 0x0, symName: __ZNSt3__116allocator_traitsINS_9allocatorIN2sf6VertexEEEE37select_on_container_copy_constructionB7v160006IS4_vvEES4_RKS4_, symObjAddr: 0x4DF0, symBinAddr: 0x1000060F0, symSize: 0x10 }
  - { offsetInCU: 0x20452, offset: 0x20452, size: 0x8, addend: 0x0, symName: __ZNKSt3__16vectorIN2sf6VertexENS_9allocatorIS2_EEE7__allocB7v160006Ev, symObjAddr: 0x4E00, symBinAddr: 0x100006100, symSize: 0x20 }
  - { offsetInCU: 0x2047D, offset: 0x2047D, size: 0x8, addend: 0x0, symName: __ZNSt3__117__compressed_pairIPN2sf6VertexENS_9allocatorIS2_EEEC1B7v160006IDnS5_EEOT_OT0_, symObjAddr: 0x4E20, symBinAddr: 0x100006120, symSize: 0x30 }
  - { offsetInCU: 0x204D5, offset: 0x204D5, size: 0x8, addend: 0x0, symName: __ZNSt3__16vectorIN2sf6VertexENS_9allocatorIS2_EEE16__destroy_vectorC1ERS5_, symObjAddr: 0x4E90, symBinAddr: 0x100006190, symSize: 0x30 }
  - { offsetInCU: 0x2050E, offset: 0x2050E, size: 0x8, addend: 0x0, symName: __ZNKSt3__16vectorIN2sf6VertexENS_9allocatorIS2_EEE4sizeB7v160006Ev, symObjAddr: 0x4ED0, symBinAddr: 0x1000061D0, symSize: 0x30 }
  - { offsetInCU: 0x20534, offset: 0x20534, size: 0x8, addend: 0x0, symName: __ZNSt3__16vectorIN2sf6VertexENS_9allocatorIS2_EEE11__vallocateB7v160006Em, symObjAddr: 0x4F00, symBinAddr: 0x100006200, symSize: 0xA0 }
  - { offsetInCU: 0x20578, offset: 0x20578, size: 0x8, addend: 0x0, symName: __ZNSt3__16vectorIN2sf6VertexENS_9allocatorIS2_EEE18__construct_at_endIPS2_Li0EEEvT_S8_m, symObjAddr: 0x4FA0, symBinAddr: 0x1000062A0, symSize: 0x90 }
  - { offsetInCU: 0x205EB, offset: 0x205EB, size: 0x8, addend: 0x0, symName: __ZNSt3__128__exception_guard_exceptionsINS_6vectorIN2sf6VertexENS_9allocatorIS3_EEE16__destroy_vectorEE10__completeB7v160006Ev, symObjAddr: 0x5030, symBinAddr: 0x100006330, symSize: 0x20 }
  - { offsetInCU: 0x20611, offset: 0x20611, size: 0x8, addend: 0x0, symName: __ZNSt3__128__exception_guard_exceptionsINS_6vectorIN2sf6VertexENS_9allocatorIS3_EEE16__destroy_vectorEED1B7v160006Ev, symObjAddr: 0x5050, symBinAddr: 0x100006350, symSize: 0x20 }
  - { offsetInCU: 0x2063B, offset: 0x2063B, size: 0x8, addend: 0x0, symName: __ZNKSt3__117__compressed_pairIPN2sf6VertexENS_9allocatorIS2_EEE6secondB7v160006Ev, symObjAddr: 0x5070, symBinAddr: 0x100006370, symSize: 0x20 }
  - { offsetInCU: 0x20661, offset: 0x20661, size: 0x8, addend: 0x0, symName: __ZNKSt3__122__compressed_pair_elemINS_9allocatorIN2sf6VertexEEELi1ELb1EE5__getB7v160006Ev, symObjAddr: 0x5090, symBinAddr: 0x100006390, symSize: 0x10 }
  - { offsetInCU: 0x20687, offset: 0x20687, size: 0x8, addend: 0x0, symName: __ZNSt3__117__compressed_pairIPN2sf6VertexENS_9allocatorIS2_EEEC2B7v160006IDnS5_EEOT_OT0_, symObjAddr: 0x50A0, symBinAddr: 0x1000063A0, symSize: 0x40 }
  - { offsetInCU: 0x206DF, offset: 0x206DF, size: 0x8, addend: 0x0, symName: __ZNSt3__122__compressed_pair_elemIPN2sf6VertexELi0ELb0EEC2B7v160006IDnvEEOT_, symObjAddr: 0x50E0, symBinAddr: 0x1000063E0, symSize: 0x20 }
  - { offsetInCU: 0x20721, offset: 0x20721, size: 0x8, addend: 0x0, symName: __ZNSt3__122__compressed_pair_elemINS_9allocatorIN2sf6VertexEEELi1ELb1EEC2B7v160006IS4_vEEOT_, symObjAddr: 0x5100, symBinAddr: 0x100006400, symSize: 0x10 }
  - { offsetInCU: 0x20763, offset: 0x20763, size: 0x8, addend: 0x0, symName: __ZNSt3__128__exception_guard_exceptionsINS_6vectorIN2sf6VertexENS_9allocatorIS3_EEE16__destroy_vectorEEC1B7v160006ES7_, symObjAddr: 0x5110, symBinAddr: 0x100006410, symSize: 0x30 }
  - { offsetInCU: 0x2079B, offset: 0x2079B, size: 0x8, addend: 0x0, symName: __ZNSt3__128__exception_guard_exceptionsINS_6vectorIN2sf6VertexENS_9allocatorIS3_EEE16__destroy_vectorEEC2B7v160006ES7_, symObjAddr: 0x5140, symBinAddr: 0x100006440, symSize: 0x20 }
  - { offsetInCU: 0x207D3, offset: 0x207D3, size: 0x8, addend: 0x0, symName: __ZNSt3__16vectorIN2sf6VertexENS_9allocatorIS2_EEE16__destroy_vectorC2ERS5_, symObjAddr: 0x5160, symBinAddr: 0x100006460, symSize: 0x20 }
  - { offsetInCU: 0x2080C, offset: 0x2080C, size: 0x8, addend: 0x0, symName: __ZNKSt3__16vectorIN2sf6VertexENS_9allocatorIS2_EEE8max_sizeEv, symObjAddr: 0x5180, symBinAddr: 0x100006480, symSize: 0x60 }
  - { offsetInCU: 0x20834, offset: 0x20834, size: 0x8, addend: 0x0, symName: __ZNKSt3__16vectorIN2sf6VertexENS_9allocatorIS2_EEE20__throw_length_errorB7v160006Ev, symObjAddr: 0x51E0, symBinAddr: 0x1000064E0, symSize: 0x20 }
  - { offsetInCU: 0x2085A, offset: 0x2085A, size: 0x8, addend: 0x0, symName: __ZNSt3__16vectorIN2sf6VertexENS_9allocatorIS2_EEE7__allocB7v160006Ev, symObjAddr: 0x5240, symBinAddr: 0x100006540, symSize: 0x20 }
  - { offsetInCU: 0x20880, offset: 0x20880, size: 0x8, addend: 0x0, symName: __ZNSt3__16vectorIN2sf6VertexENS_9allocatorIS2_EEE9__end_capB7v160006Ev, symObjAddr: 0x5260, symBinAddr: 0x100006560, symSize: 0x20 }
  - { offsetInCU: 0x208A6, offset: 0x208A6, size: 0x8, addend: 0x0, symName: __ZNKSt3__16vectorIN2sf6VertexENS_9allocatorIS2_EEE14__annotate_newB7v160006Em, symObjAddr: 0x5280, symBinAddr: 0x100006580, symSize: 0xA0 }
  - { offsetInCU: 0x208DB, offset: 0x208DB, size: 0x8, addend: 0x0, symName: __ZNSt3__116allocator_traitsINS_9allocatorIN2sf6VertexEEEE8max_sizeB7v160006IS4_vEEmRKS4_, symObjAddr: 0x5320, symBinAddr: 0x100006620, symSize: 0x20 }
  - { offsetInCU: 0x20909, offset: 0x20909, size: 0x8, addend: 0x0, symName: __ZNKSt3__19allocatorIN2sf6VertexEE8max_sizeB7v160006Ev, symObjAddr: 0x5340, symBinAddr: 0x100006640, symSize: 0x20 }
  - { offsetInCU: 0x2092F, offset: 0x2092F, size: 0x8, addend: 0x0, symName: __ZNSt3__19allocatorIN2sf6VertexEE8allocateB7v160006Em, symObjAddr: 0x5360, symBinAddr: 0x100006660, symSize: 0x50 }
  - { offsetInCU: 0x20963, offset: 0x20963, size: 0x8, addend: 0x0, symName: __ZNSt3__117__compressed_pairIPN2sf6VertexENS_9allocatorIS2_EEE6secondB7v160006Ev, symObjAddr: 0x53B0, symBinAddr: 0x1000066B0, symSize: 0x20 }
  - { offsetInCU: 0x20989, offset: 0x20989, size: 0x8, addend: 0x0, symName: __ZNSt3__122__compressed_pair_elemINS_9allocatorIN2sf6VertexEEELi1ELb1EE5__getB7v160006Ev, symObjAddr: 0x53D0, symBinAddr: 0x1000066D0, symSize: 0x10 }
  - { offsetInCU: 0x209AF, offset: 0x209AF, size: 0x8, addend: 0x0, symName: __ZNSt3__117__compressed_pairIPN2sf6VertexENS_9allocatorIS2_EEE5firstB7v160006Ev, symObjAddr: 0x53E0, symBinAddr: 0x1000066E0, symSize: 0x20 }
  - { offsetInCU: 0x209D5, offset: 0x209D5, size: 0x8, addend: 0x0, symName: __ZNSt3__122__compressed_pair_elemIPN2sf6VertexELi0ELb0EE5__getB7v160006Ev, symObjAddr: 0x5400, symBinAddr: 0x100006700, symSize: 0x10 }
  - { offsetInCU: 0x209FB, offset: 0x209FB, size: 0x8, addend: 0x0, symName: __ZNKSt3__16vectorIN2sf6VertexENS_9allocatorIS2_EEE31__annotate_contiguous_containerB7v160006EPKvS7_S7_S7_, symObjAddr: 0x5410, symBinAddr: 0x100006710, symSize: 0x20 }
  - { offsetInCU: 0x20A4D, offset: 0x20A4D, size: 0x8, addend: 0x0, symName: __ZNKSt3__16vectorIN2sf6VertexENS_9allocatorIS2_EEE4dataB7v160006Ev, symObjAddr: 0x5430, symBinAddr: 0x100006730, symSize: 0x20 }
  - { offsetInCU: 0x20A73, offset: 0x20A73, size: 0x8, addend: 0x0, symName: __ZNKSt3__16vectorIN2sf6VertexENS_9allocatorIS2_EEE8capacityB7v160006Ev, symObjAddr: 0x5450, symBinAddr: 0x100006750, symSize: 0x40 }
  - { offsetInCU: 0x20A99, offset: 0x20A99, size: 0x8, addend: 0x0, symName: __ZNKSt3__16vectorIN2sf6VertexENS_9allocatorIS2_EEE9__end_capB7v160006Ev, symObjAddr: 0x54A0, symBinAddr: 0x1000067A0, symSize: 0x20 }
  - { offsetInCU: 0x20ABF, offset: 0x20ABF, size: 0x8, addend: 0x0, symName: __ZNKSt3__117__compressed_pairIPN2sf6VertexENS_9allocatorIS2_EEE5firstB7v160006Ev, symObjAddr: 0x54C0, symBinAddr: 0x1000067C0, symSize: 0x20 }
  - { offsetInCU: 0x20AE5, offset: 0x20AE5, size: 0x8, addend: 0x0, symName: __ZNKSt3__122__compressed_pair_elemIPN2sf6VertexELi0ELb0EE5__getB7v160006Ev, symObjAddr: 0x54E0, symBinAddr: 0x1000067E0, symSize: 0x10 }
  - { offsetInCU: 0x20B24, offset: 0x20B24, size: 0x8, addend: 0x0, symName: __ZNSt3__16vectorIN2sf6VertexENS_9allocatorIS2_EEE21_ConstructTransactionC1B7v160006ERS5_m, symObjAddr: 0x54F0, symBinAddr: 0x1000067F0, symSize: 0x30 }
  - { offsetInCU: 0x20B6C, offset: 0x20B6C, size: 0x8, addend: 0x0, symName: __ZNSt3__16vectorIN2sf6VertexENS_9allocatorIS2_EEE21_ConstructTransactionD1B7v160006Ev, symObjAddr: 0x5620, symBinAddr: 0x100006920, symSize: 0x20 }
  - { offsetInCU: 0x20B96, offset: 0x20B96, size: 0x8, addend: 0x0, symName: __ZNSt3__16vectorIN2sf6VertexENS_9allocatorIS2_EEE21_ConstructTransactionC2B7v160006ERS5_m, symObjAddr: 0x5640, symBinAddr: 0x100006940, symSize: 0x40 }
  - { offsetInCU: 0x20BDE, offset: 0x20BDE, size: 0x8, addend: 0x0, symName: __ZNSt3__129_AllocatorDestroyRangeReverseINS_9allocatorIN2sf6VertexEEEPS3_EC1B7v160006ERS4_RS5_S8_, symObjAddr: 0x56E0, symBinAddr: 0x1000069E0, symSize: 0x40 }
  - { offsetInCU: 0x20C35, offset: 0x20C35, size: 0x8, addend: 0x0, symName: __ZNSt3__116allocator_traitsINS_9allocatorIN2sf6VertexEEEE9constructB7v160006IS3_JRS3_EvEEvRS4_PT_DpOT0_, symObjAddr: 0x5720, symBinAddr: 0x100006A20, symSize: 0x30 }
  - { offsetInCU: 0x20C8C, offset: 0x20C8C, size: 0x8, addend: 0x0, symName: __ZNSt3__128__exception_guard_exceptionsINS_29_AllocatorDestroyRangeReverseINS_9allocatorIN2sf6VertexEEEPS4_EEE10__completeB7v160006Ev, symObjAddr: 0x5750, symBinAddr: 0x100006A50, symSize: 0x20 }
  - { offsetInCU: 0x20CB2, offset: 0x20CB2, size: 0x8, addend: 0x0, symName: __ZNSt3__128__exception_guard_exceptionsINS_29_AllocatorDestroyRangeReverseINS_9allocatorIN2sf6VertexEEEPS4_EEED1B7v160006Ev, symObjAddr: 0x5770, symBinAddr: 0x100006A70, symSize: 0x20 }
  - { offsetInCU: 0x20CDC, offset: 0x20CDC, size: 0x8, addend: 0x0, symName: __ZNSt3__128__exception_guard_exceptionsINS_29_AllocatorDestroyRangeReverseINS_9allocatorIN2sf6VertexEEEPS4_EEEC1B7v160006ES7_, symObjAddr: 0x5790, symBinAddr: 0x100006A90, symSize: 0x40 }
  - { offsetInCU: 0x20D14, offset: 0x20D14, size: 0x8, addend: 0x0, symName: __ZNSt3__128__exception_guard_exceptionsINS_29_AllocatorDestroyRangeReverseINS_9allocatorIN2sf6VertexEEEPS4_EEEC2B7v160006ES7_, symObjAddr: 0x57D0, symBinAddr: 0x100006AD0, symSize: 0x30 }
  - { offsetInCU: 0x20D4C, offset: 0x20D4C, size: 0x8, addend: 0x0, symName: __ZNSt3__129_AllocatorDestroyRangeReverseINS_9allocatorIN2sf6VertexEEEPS3_EC2B7v160006ERS4_RS5_S8_, symObjAddr: 0x5800, symBinAddr: 0x100006B00, symSize: 0x40 }
  - { offsetInCU: 0x20DA3, offset: 0x20DA3, size: 0x8, addend: 0x0, symName: __ZNSt3__19allocatorIN2sf6VertexEE9constructB7v160006IS2_JRS2_EEEvPT_DpOT0_, symObjAddr: 0x5840, symBinAddr: 0x100006B40, symSize: 0x30 }
  - { offsetInCU: 0x20DF9, offset: 0x20DF9, size: 0x8, addend: 0x0, symName: __ZNSt3__128__exception_guard_exceptionsINS_29_AllocatorDestroyRangeReverseINS_9allocatorIN2sf6VertexEEEPS4_EEED2B7v160006Ev, symObjAddr: 0x5870, symBinAddr: 0x100006B70, symSize: 0x40 }
  - { offsetInCU: 0x20E23, offset: 0x20E23, size: 0x8, addend: 0x0, symName: __ZNKSt3__129_AllocatorDestroyRangeReverseINS_9allocatorIN2sf6VertexEEEPS3_EclB7v160006Ev, symObjAddr: 0x58B0, symBinAddr: 0x100006BB0, symSize: 0x60 }
  - { offsetInCU: 0x20E49, offset: 0x20E49, size: 0x8, addend: 0x0, symName: __ZNSt3__116reverse_iteratorIPN2sf6VertexEEC1B7v160006ES3_, symObjAddr: 0x5980, symBinAddr: 0x100006C80, symSize: 0x30 }
  - { offsetInCU: 0x20E81, offset: 0x20E81, size: 0x8, addend: 0x0, symName: __ZNSt3__116allocator_traitsINS_9allocatorIN2sf6VertexEEEE7destroyB7v160006IS3_vEEvRS4_PT_, symObjAddr: 0x59F0, symBinAddr: 0x100006CF0, symSize: 0x30 }
  - { offsetInCU: 0x20EBE, offset: 0x20EBE, size: 0x8, addend: 0x0, symName: __ZNSt3__116reverse_iteratorIPN2sf6VertexEEppB7v160006Ev, symObjAddr: 0x5A40, symBinAddr: 0x100006D40, symSize: 0x20 }
  - { offsetInCU: 0x20EE4, offset: 0x20EE4, size: 0x8, addend: 0x0, symName: __ZNKSt3__116reverse_iteratorIPN2sf6VertexEE4baseB7v160006Ev, symObjAddr: 0x5A60, symBinAddr: 0x100006D60, symSize: 0x20 }
  - { offsetInCU: 0x20F0A, offset: 0x20F0A, size: 0x8, addend: 0x0, symName: __ZNSt3__19allocatorIN2sf6VertexEE7destroyB7v160006EPS2_, symObjAddr: 0x5A80, symBinAddr: 0x100006D80, symSize: 0x10 }
  - { offsetInCU: 0x20F43, offset: 0x20F43, size: 0x8, addend: 0x0, symName: __ZNSt3__119__to_address_helperINS_16reverse_iteratorIPN2sf6VertexEEEvE6__callB7v160006ERKS5_, symObjAddr: 0x5A90, symBinAddr: 0x100006D90, symSize: 0x40 }
  - { offsetInCU: 0x20F66, offset: 0x20F66, size: 0x8, addend: 0x0, symName: __ZNKSt3__116reverse_iteratorIPN2sf6VertexEEptB7v160006Ev, symObjAddr: 0x5AD0, symBinAddr: 0x100006DD0, symSize: 0x20 }
  - { offsetInCU: 0x20F8C, offset: 0x20F8C, size: 0x8, addend: 0x0, symName: __ZNKSt3__116reverse_iteratorIPN2sf6VertexEEdeB7v160006Ev, symObjAddr: 0x5AF0, symBinAddr: 0x100006DF0, symSize: 0x30 }
  - { offsetInCU: 0x20FC0, offset: 0x20FC0, size: 0x8, addend: 0x0, symName: __ZNSt3__116reverse_iteratorIPN2sf6VertexEEC2B7v160006ES3_, symObjAddr: 0x5B20, symBinAddr: 0x100006E20, symSize: 0x30 }
  - { offsetInCU: 0x20FF8, offset: 0x20FF8, size: 0x8, addend: 0x0, symName: __ZNSt3__16vectorIN2sf6VertexENS_9allocatorIS2_EEE21_ConstructTransactionD2B7v160006Ev, symObjAddr: 0x5B50, symBinAddr: 0x100006E50, symSize: 0x20 }
  - { offsetInCU: 0x21022, offset: 0x21022, size: 0x8, addend: 0x0, symName: __ZNSt3__128__exception_guard_exceptionsINS_6vectorIN2sf6VertexENS_9allocatorIS3_EEE16__destroy_vectorEED2B7v160006Ev, symObjAddr: 0x5B70, symBinAddr: 0x100006E70, symSize: 0x40 }
  - { offsetInCU: 0x2104C, offset: 0x2104C, size: 0x8, addend: 0x0, symName: __ZNSt3__16vectorIN2sf6VertexENS_9allocatorIS2_EEE16__destroy_vectorclB7v160006Ev, symObjAddr: 0x5BB0, symBinAddr: 0x100006EB0, symSize: 0x90 }
  - { offsetInCU: 0x21072, offset: 0x21072, size: 0x8, addend: 0x0, symName: __ZNKSt3__16vectorIN2sf6VertexENS_9allocatorIS2_EEE17__annotate_deleteB7v160006Ev, symObjAddr: 0x5C40, symBinAddr: 0x100006F40, symSize: 0xB0 }
  - { offsetInCU: 0x21098, offset: 0x21098, size: 0x8, addend: 0x0, symName: __ZNSt3__16vectorIN2sf6VertexENS_9allocatorIS2_EEE7__clearB7v160006Ev, symObjAddr: 0x5D00, symBinAddr: 0x100007000, symSize: 0x20 }
  - { offsetInCU: 0x210BE, offset: 0x210BE, size: 0x8, addend: 0x0, symName: __ZNSt3__116allocator_traitsINS_9allocatorIN2sf6VertexEEEE10deallocateB7v160006ERS4_PS3_m, symObjAddr: 0x5D20, symBinAddr: 0x100007020, symSize: 0x30 }
  - { offsetInCU: 0x21100, offset: 0x21100, size: 0x8, addend: 0x0, symName: __ZNSt3__16vectorIN2sf6VertexENS_9allocatorIS2_EEE22__base_destruct_at_endB7v160006EPS2_, symObjAddr: 0x5D50, symBinAddr: 0x100007050, symSize: 0x80 }
  - { offsetInCU: 0x21144, offset: 0x21144, size: 0x8, addend: 0x0, symName: __ZNSt3__19allocatorIN2sf6VertexEE10deallocateB7v160006EPS2_m, symObjAddr: 0x5DD0, symBinAddr: 0x1000070D0, symSize: 0x50 }
  - { offsetInCU: 0x21186, offset: 0x21186, size: 0x8, addend: 0x0, symName: __ZN2sf11VertexArrayD2Ev, symObjAddr: 0x5E20, symBinAddr: 0x100007120, symSize: 0x40 }
  - { offsetInCU: 0x211B2, offset: 0x211B2, size: 0x8, addend: 0x0, symName: __ZNSt3__16vectorIN2sf6VertexENS_9allocatorIS2_EEED1B7v160006Ev, symObjAddr: 0x5E60, symBinAddr: 0x100007160, symSize: 0x20 }
  - { offsetInCU: 0x211DC, offset: 0x211DC, size: 0x8, addend: 0x0, symName: __ZNSt3__16vectorIN2sf6VertexENS_9allocatorIS2_EEED2B7v160006Ev, symObjAddr: 0x5E80, symBinAddr: 0x100007180, symSize: 0x40 }
  - { offsetInCU: 0x21206, offset: 0x21206, size: 0x8, addend: 0x0, symName: __ZN2sf11CircleShapeC2ERKS0_, symObjAddr: 0x5EC0, symBinAddr: 0x1000071C0, symSize: 0x70 }
  - { offsetInCU: 0x21240, offset: 0x21240, size: 0x8, addend: 0x0, symName: __ZNSt3__119__to_address_helperINS_16reverse_iteratorIP4CellEEvE6__callB7v160006ERKS4_, symObjAddr: 0x5F30, symBinAddr: 0x100007230, symSize: 0x40 }
  - { offsetInCU: 0x21263, offset: 0x21263, size: 0x8, addend: 0x0, symName: __ZNKSt3__116reverse_iteratorIP4CellEptB7v160006Ev, symObjAddr: 0x5F70, symBinAddr: 0x100007270, symSize: 0x20 }
  - { offsetInCU: 0x21289, offset: 0x21289, size: 0x8, addend: 0x0, symName: __ZNSt3__128__exception_guard_exceptionsINS_29_AllocatorDestroyRangeReverseINS_9allocatorI4CellEENS_16reverse_iteratorIPS3_EEEEED2B7v160006Ev, symObjAddr: 0x5F90, symBinAddr: 0x100007290, symSize: 0x40 }
  - { offsetInCU: 0x212B3, offset: 0x212B3, size: 0x8, addend: 0x0, symName: __ZNKSt3__129_AllocatorDestroyRangeReverseINS_9allocatorI4CellEENS_16reverse_iteratorIPS2_EEEclB7v160006Ev, symObjAddr: 0x5FD0, symBinAddr: 0x1000072D0, symSize: 0xF0 }
  - { offsetInCU: 0x212DA, offset: 0x212DA, size: 0x8, addend: 0x0, symName: __ZNSt3__116reverse_iteratorINS0_IP4CellEEEC1B7v160006ES3_, symObjAddr: 0x6130, symBinAddr: 0x100007430, symSize: 0x30 }
  - { offsetInCU: 0x21312, offset: 0x21312, size: 0x8, addend: 0x0, symName: __ZNSt3__116reverse_iteratorINS0_IP4CellEEEppB7v160006Ev, symObjAddr: 0x61D0, symBinAddr: 0x1000074D0, symSize: 0x30 }
  - { offsetInCU: 0x21338, offset: 0x21338, size: 0x8, addend: 0x0, symName: __ZNKSt3__116reverse_iteratorINS0_IP4CellEEE4baseB7v160006Ev, symObjAddr: 0x6200, symBinAddr: 0x100007500, symSize: 0x20 }
  - { offsetInCU: 0x21363, offset: 0x21363, size: 0x8, addend: 0x0, symName: __ZNSt3__119__to_address_helperINS_16reverse_iteratorINS1_IP4CellEEEEvE6__callB7v160006ERKS5_, symObjAddr: 0x6220, symBinAddr: 0x100007520, symSize: 0x40 }
  - { offsetInCU: 0x21386, offset: 0x21386, size: 0x8, addend: 0x0, symName: __ZNKSt3__116reverse_iteratorINS0_IP4CellEEEptB7v160006Ev, symObjAddr: 0x6260, symBinAddr: 0x100007560, symSize: 0x20 }
  - { offsetInCU: 0x213AC, offset: 0x213AC, size: 0x8, addend: 0x0, symName: __ZNKSt3__116reverse_iteratorINS0_IP4CellEEEdeB7v160006Ev, symObjAddr: 0x6280, symBinAddr: 0x100007580, symSize: 0x40 }
  - { offsetInCU: 0x213E0, offset: 0x213E0, size: 0x8, addend: 0x0, symName: __ZNSt3__116reverse_iteratorIP4CellEmmB7v160006Ev, symObjAddr: 0x62C0, symBinAddr: 0x1000075C0, symSize: 0x20 }
  - { offsetInCU: 0x21406, offset: 0x21406, size: 0x8, addend: 0x0, symName: __ZNSt3__116reverse_iteratorINS0_IP4CellEEEC2B7v160006ES3_, symObjAddr: 0x62E0, symBinAddr: 0x1000075E0, symSize: 0x40 }
  - { offsetInCU: 0x2143E, offset: 0x2143E, size: 0x8, addend: 0x0, symName: __ZNSt3__116reverse_iteratorIP4CellEC2B7v160006ES2_, symObjAddr: 0x6320, symBinAddr: 0x100007620, symSize: 0x30 }
  - { offsetInCU: 0x21476, offset: 0x21476, size: 0x8, addend: 0x0, symName: __ZNSt3__114__split_bufferI4CellRNS_9allocatorIS1_EEED2Ev, symObjAddr: 0x6350, symBinAddr: 0x100007650, symSize: 0x70 }
  - { offsetInCU: 0x214A2, offset: 0x214A2, size: 0x8, addend: 0x0, symName: __ZNSt3__114__split_bufferI4CellRNS_9allocatorIS1_EEE5clearB7v160006Ev, symObjAddr: 0x63C0, symBinAddr: 0x1000076C0, symSize: 0x20 }
  - { offsetInCU: 0x214C8, offset: 0x214C8, size: 0x8, addend: 0x0, symName: __ZNKSt3__114__split_bufferI4CellRNS_9allocatorIS1_EEE8capacityB7v160006Ev, symObjAddr: 0x63E0, symBinAddr: 0x1000076E0, symSize: 0x40 }
  - { offsetInCU: 0x214EE, offset: 0x214EE, size: 0x8, addend: 0x0, symName: __ZNSt3__114__split_bufferI4CellRNS_9allocatorIS1_EEE17__destruct_at_endB7v160006EPS1_, symObjAddr: 0x6420, symBinAddr: 0x100007720, symSize: 0x30 }
  - { offsetInCU: 0x21522, offset: 0x21522, size: 0x8, addend: 0x0, symName: __ZNSt3__114__split_bufferI4CellRNS_9allocatorIS1_EEE17__destruct_at_endB7v160006EPS1_NS_17integral_constantIbLb0EEE, symObjAddr: 0x6450, symBinAddr: 0x100007750, symSize: 0x80 }
  - { offsetInCU: 0x21562, offset: 0x21562, size: 0x8, addend: 0x0, symName: __ZNKSt3__114__split_bufferI4CellRNS_9allocatorIS1_EEE9__end_capB7v160006Ev, symObjAddr: 0x64D0, symBinAddr: 0x1000077D0, symSize: 0x20 }
  - { offsetInCU: 0x21588, offset: 0x21588, size: 0x8, addend: 0x0, symName: __ZNKSt3__117__compressed_pairIP4CellRNS_9allocatorIS1_EEE5firstB7v160006Ev, symObjAddr: 0x64F0, symBinAddr: 0x1000077F0, symSize: 0x20 }
  - { offsetInCU: 0x215AE, offset: 0x215AE, size: 0x8, addend: 0x0, symName: __ZNSt3__16vectorI4CellNS_9allocatorIS1_EEE27__invalidate_iterators_pastB7v160006EPS1_, symObjAddr: 0x6510, symBinAddr: 0x100007810, symSize: 0x10 }
  - { offsetInCU: 0x215E5, offset: 0x215E5, size: 0x8, addend: 0x0, symName: __ZNKSt3__16vectorI4CellNS_9allocatorIS1_EEE17__annotate_shrinkB7v160006Em, symObjAddr: 0x6520, symBinAddr: 0x100007820, symSize: 0xB0 }
  - { offsetInCU: 0x2161A, offset: 0x2161A, size: 0x8, addend: 0x0, symName: __ZN4CellC2EffN2sf7Vector2IfEE, symObjAddr: 0x65D0, symBinAddr: 0x1000078D0, symSize: 0x260 }
  - { offsetInCU: 0x2166E, offset: 0x2166E, size: 0x8, addend: 0x0, symName: __ZN4Cell9setupWallEv, symObjAddr: 0x6830, symBinAddr: 0x100007B30, symSize: 0x60 }
  - { offsetInCU: 0x216A2, offset: 0x216A2, size: 0x8, addend: 0x0, symName: __ZN2sf11CircleShapeD1Ev, symObjAddr: 0x6890, symBinAddr: 0x100007B90, symSize: 0x20 }
  - { offsetInCU: 0x216CE, offset: 0x216CE, size: 0x8, addend: 0x0, symName: __ZN2sf11CircleShapeD2Ev, symObjAddr: 0x68B0, symBinAddr: 0x100007BB0, symSize: 0x20 }
  - { offsetInCU: 0x216FA, offset: 0x216FA, size: 0x8, addend: 0x0, symName: __ZThn8_N2sf11CircleShapeD1Ev, symObjAddr: 0x68D0, symBinAddr: 0x100007BD0, symSize: 0x20 }
  - { offsetInCU: 0x2171A, offset: 0x2171A, size: 0x8, addend: 0x0, symName: __ZN2sf14RectangleShapeaSEOS0_, symObjAddr: 0x68F0, symBinAddr: 0x100007BF0, symSize: 0x40 }
  - { offsetInCU: 0x21755, offset: 0x21755, size: 0x8, addend: 0x0, symName: __ZN2sf11CircleShapeaSEOS0_, symObjAddr: 0x6930, symBinAddr: 0x100007C30, symSize: 0x50 }
  - { offsetInCU: 0x2178B, offset: 0x2178B, size: 0x8, addend: 0x0, symName: __ZN2sf5ShapeaSERKS0_, symObjAddr: 0x6980, symBinAddr: 0x100007C80, symSize: 0xE0 }
  - { offsetInCU: 0x217C1, offset: 0x217C1, size: 0x8, addend: 0x0, symName: __ZN2sf8DrawableaSERKS0_, symObjAddr: 0x6A60, symBinAddr: 0x100007D60, symSize: 0x20 }
  - { offsetInCU: 0x217F7, offset: 0x217F7, size: 0x8, addend: 0x0, symName: __ZN2sf13TransformableaSERKS0_, symObjAddr: 0x6A80, symBinAddr: 0x100007D80, symSize: 0xA0 }
  - { offsetInCU: 0x2182D, offset: 0x2182D, size: 0x8, addend: 0x0, symName: __ZN2sf11VertexArrayaSERKS0_, symObjAddr: 0x6B20, symBinAddr: 0x100007E20, symSize: 0x50 }
  - { offsetInCU: 0x2185E, offset: 0x2185E, size: 0x8, addend: 0x0, symName: __ZNSt3__16vectorIN2sf6VertexENS_9allocatorIS2_EEEaSB7v160006ERKS5_, symObjAddr: 0x6B70, symBinAddr: 0x100007E70, symSize: 0x60 }
  - { offsetInCU: 0x21895, offset: 0x21895, size: 0x8, addend: 0x0, symName: __ZNSt3__16vectorIN2sf6VertexENS_9allocatorIS2_EEE19__copy_assign_allocB7v160006ERKS5_, symObjAddr: 0x6BD0, symBinAddr: 0x100007ED0, symSize: 0x30 }
  - { offsetInCU: 0x218CA, offset: 0x218CA, size: 0x8, addend: 0x0, symName: __ZNSt3__16vectorIN2sf6VertexENS_9allocatorIS2_EEE6assignIPS2_Li0EEEvT_S8_, symObjAddr: 0x6C00, symBinAddr: 0x100007F00, symSize: 0x160 }
  - { offsetInCU: 0x21969, offset: 0x21969, size: 0x8, addend: 0x0, symName: __ZNSt3__16vectorIN2sf6VertexENS_9allocatorIS2_EEE19__copy_assign_allocB7v160006ERKS5_NS_17integral_constantIbLb0EEE, symObjAddr: 0x6D60, symBinAddr: 0x100008060, symSize: 0x10 }
  - { offsetInCU: 0x219A5, offset: 0x219A5, size: 0x8, addend: 0x0, symName: __ZNSt3__16vectorIN2sf6VertexENS_9allocatorIS2_EEE17__destruct_at_endB7v160006EPS2_, symObjAddr: 0x6E30, symBinAddr: 0x100008130, symSize: 0x60 }
  - { offsetInCU: 0x219E9, offset: 0x219E9, size: 0x8, addend: 0x0, symName: __ZNSt3__16vectorIN2sf6VertexENS_9allocatorIS2_EEE13__vdeallocateEv, symObjAddr: 0x6E90, symBinAddr: 0x100008190, symSize: 0x80 }
  - { offsetInCU: 0x21A11, offset: 0x21A11, size: 0x8, addend: 0x0, symName: __ZNKSt3__16vectorIN2sf6VertexENS_9allocatorIS2_EEE11__recommendB7v160006Em, symObjAddr: 0x6F10, symBinAddr: 0x100008210, symSize: 0xA0 }
  - { offsetInCU: 0x21A89, offset: 0x21A89, size: 0x8, addend: 0x0, symName: __ZNKSt3__114__copy_trivialclB7v160006IN2sf6VertexES3_Li0EEENS_4pairIPT_PT0_EES6_S6_S8_, symObjAddr: 0x71A0, symBinAddr: 0x1000084A0, symSize: 0x40 }
  - { offsetInCU: 0x21AF6, offset: 0x21AF6, size: 0x8, addend: 0x0, symName: __ZNSt3__14pairIPN2sf6VertexES3_EC1B7v160006IRS3_S3_LPv0EEEOT_OT0_, symObjAddr: 0x7360, symBinAddr: 0x100008660, symSize: 0x30 }
  - { offsetInCU: 0x21B54, offset: 0x21B54, size: 0x8, addend: 0x0, symName: __ZNSt3__14pairIPN2sf6VertexES3_EC2B7v160006IRS3_S3_LPv0EEEOT_OT0_, symObjAddr: 0x7390, symBinAddr: 0x100008690, symSize: 0x30 }
  - { offsetInCU: 0x21BB2, offset: 0x21BB2, size: 0x8, addend: 0x0, symName: __ZNSt3__118__unwrap_iter_implIPN2sf6VertexELb1EE8__unwrapB7v160006ES3_, symObjAddr: 0x73C0, symBinAddr: 0x1000086C0, symSize: 0x20 }
  - { offsetInCU: 0x21BD5, offset: 0x21BD5, size: 0x8, addend: 0x0, symName: __ZNSt3__14pairIPN2sf6VertexES3_EC1B7v160006IS3_S3_LPv0EEEOT_OT0_, symObjAddr: 0x73E0, symBinAddr: 0x1000086E0, symSize: 0x30 }
  - { offsetInCU: 0x21C33, offset: 0x21C33, size: 0x8, addend: 0x0, symName: __ZNSt3__14pairIPN2sf6VertexES3_EC2B7v160006IS3_S3_LPv0EEEOT_OT0_, symObjAddr: 0x7410, symBinAddr: 0x100008710, symSize: 0x30 }
  - { offsetInCU: 0x21C91, offset: 0x21C91, size: 0x8, addend: 0x0, symName: __ZNSt3__118__unwrap_iter_implIPN2sf6VertexELb1EE8__rewrapB7v160006ES3_S3_, symObjAddr: 0x7440, symBinAddr: 0x100008740, symSize: 0x60 }
  - { offsetInCU: 0x21CC2, offset: 0x21CC2, size: 0x8, addend: 0x0, symName: __ZNSt3__16vectorIN2sf6VertexENS_9allocatorIS2_EEE27__invalidate_iterators_pastB7v160006EPS2_, symObjAddr: 0x74A0, symBinAddr: 0x1000087A0, symSize: 0x10 }
  - { offsetInCU: 0x21CF9, offset: 0x21CF9, size: 0x8, addend: 0x0, symName: __ZNKSt3__16vectorIN2sf6VertexENS_9allocatorIS2_EEE17__annotate_shrinkB7v160006Em, symObjAddr: 0x74B0, symBinAddr: 0x1000087B0, symSize: 0xA0 }
  - { offsetInCU: 0x21D2E, offset: 0x21D2E, size: 0x8, addend: 0x0, symName: __ZNSt3__16vectorIN2sf6VertexENS_9allocatorIS2_EEE5clearB7v160006Ev, symObjAddr: 0x7550, symBinAddr: 0x100008850, symSize: 0x50 }
  - { offsetInCU: 0x21D63, offset: 0x21D63, size: 0x8, addend: 0x0, symName: __ZN4CellD2Ev, symObjAddr: 0x75A0, symBinAddr: 0x1000088A0, symSize: 0x40 }
  - { offsetInCU: 0x21D8F, offset: 0x21D8F, size: 0x8, addend: 0x0, symName: __ZNSt3__16vectorINS0_I4CellNS_9allocatorIS1_EEEENS2_IS4_EEED2B7v160006Ev, symObjAddr: 0x75E0, symBinAddr: 0x1000088E0, symSize: 0x40 }
  - { offsetInCU: 0x21DB9, offset: 0x21DB9, size: 0x8, addend: 0x0, symName: __ZNSt3__16vectorINS0_I4CellNS_9allocatorIS1_EEEENS2_IS4_EEE16__destroy_vectorC1ERS6_, symObjAddr: 0x7620, symBinAddr: 0x100008920, symSize: 0x30 }
  - { offsetInCU: 0x21DF2, offset: 0x21DF2, size: 0x8, addend: 0x0, symName: __ZNSt3__16vectorINS0_I4CellNS_9allocatorIS1_EEEENS2_IS4_EEE16__destroy_vectorclB7v160006Ev, symObjAddr: 0x7650, symBinAddr: 0x100008950, symSize: 0x90 }
  - { offsetInCU: 0x21E18, offset: 0x21E18, size: 0x8, addend: 0x0, symName: __ZNSt3__16vectorINS0_I4CellNS_9allocatorIS1_EEEENS2_IS4_EEE16__destroy_vectorC2ERS6_, symObjAddr: 0x76E0, symBinAddr: 0x1000089E0, symSize: 0x20 }
  - { offsetInCU: 0x21E51, offset: 0x21E51, size: 0x8, addend: 0x0, symName: __ZNSt3__16vectorINS0_I4CellNS_9allocatorIS1_EEEENS2_IS4_EEE7__clearB7v160006Ev, symObjAddr: 0x7710, symBinAddr: 0x100008A10, symSize: 0x20 }
  - { offsetInCU: 0x21E77, offset: 0x21E77, size: 0x8, addend: 0x0, symName: __ZN4GameC2ER4Grid, symObjAddr: 0x7730, symBinAddr: 0x100008A30, symSize: 0xF0 }
  - { offsetInCU: 0x21EAF, offset: 0x21EAF, size: 0x8, addend: 0x0, symName: __ZNSt3__16vectorIP4CellNS_9allocatorIS2_EEEC1B7v160006Ev, symObjAddr: 0x7820, symBinAddr: 0x100008B20, symSize: 0x20 }
  - { offsetInCU: 0x21ED9, offset: 0x21ED9, size: 0x8, addend: 0x0, symName: __ZN4Grid7getCellEii, symObjAddr: 0x7840, symBinAddr: 0x100008B40, symSize: 0x40 }
  - { offsetInCU: 0x21F1B, offset: 0x21F1B, size: 0x8, addend: 0x0, symName: __ZN4Cell17setAsStartingCellEv, symObjAddr: 0x7880, symBinAddr: 0x100008B80, symSize: 0x40 }
  - { offsetInCU: 0x21F41, offset: 0x21F41, size: 0x8, addend: 0x0, symName: __ZN4Cell15setAsEndingCellEv, symObjAddr: 0x78C0, symBinAddr: 0x100008BC0, symSize: 0x40 }
  - { offsetInCU: 0x21F67, offset: 0x21F67, size: 0x8, addend: 0x0, symName: __ZNSt3__16vectorIP4CellNS_9allocatorIS2_EEE9push_backB7v160006ERKS2_, symObjAddr: 0x7900, symBinAddr: 0x100008C00, symSize: 0x60 }
  - { offsetInCU: 0x21F9E, offset: 0x21F9E, size: 0x8, addend: 0x0, symName: __ZNSt3__16vectorIP4CellNS_9allocatorIS2_EEED1B7v160006Ev, symObjAddr: 0x7960, symBinAddr: 0x100008C60, symSize: 0x20 }
  - { offsetInCU: 0x21FC8, offset: 0x21FC8, size: 0x8, addend: 0x0, symName: __ZNSt3__16vectorIP4CellNS_9allocatorIS2_EEEC2B7v160006Ev, symObjAddr: 0x7980, symBinAddr: 0x100008C80, symSize: 0x60 }
  - { offsetInCU: 0x21FF2, offset: 0x21FF2, size: 0x8, addend: 0x0, symName: __ZNSt3__117__compressed_pairIPP4CellNS_9allocatorIS2_EEEC1B7v160006IDnNS_18__default_init_tagEEEOT_OT0_, symObjAddr: 0x79E0, symBinAddr: 0x100008CE0, symSize: 0x30 }
  - { offsetInCU: 0x2204A, offset: 0x2204A, size: 0x8, addend: 0x0, symName: __ZNSt3__117__compressed_pairIPP4CellNS_9allocatorIS2_EEEC2B7v160006IDnNS_18__default_init_tagEEEOT_OT0_, symObjAddr: 0x7A20, symBinAddr: 0x100008D20, symSize: 0x40 }
  - { offsetInCU: 0x220A2, offset: 0x220A2, size: 0x8, addend: 0x0, symName: __ZNSt3__122__compressed_pair_elemIPP4CellLi0ELb0EEC2B7v160006IDnvEEOT_, symObjAddr: 0x7A60, symBinAddr: 0x100008D60, symSize: 0x20 }
  - { offsetInCU: 0x220E4, offset: 0x220E4, size: 0x8, addend: 0x0, symName: __ZNSt3__122__compressed_pair_elemINS_9allocatorIP4CellEELi1ELb1EEC2B7v160006ENS_18__default_init_tagE, symObjAddr: 0x7A80, symBinAddr: 0x100008D80, symSize: 0x20 }
  - { offsetInCU: 0x22118, offset: 0x22118, size: 0x8, addend: 0x0, symName: __ZNSt3__19allocatorIP4CellEC2B7v160006Ev, symObjAddr: 0x7AA0, symBinAddr: 0x100008DA0, symSize: 0x20 }
  - { offsetInCU: 0x22142, offset: 0x22142, size: 0x8, addend: 0x0, symName: __ZNSt3__116__non_trivial_ifILb1ENS_9allocatorIP4CellEEEC2B7v160006Ev, symObjAddr: 0x7AC0, symBinAddr: 0x100008DC0, symSize: 0x10 }
  - { offsetInCU: 0x2216C, offset: 0x2216C, size: 0x8, addend: 0x0, symName: __ZNSt3__16vectorIP4CellNS_9allocatorIS2_EEE9__end_capB7v160006Ev, symObjAddr: 0x7AD0, symBinAddr: 0x100008DD0, symSize: 0x20 }
  - { offsetInCU: 0x22192, offset: 0x22192, size: 0x8, addend: 0x0, symName: __ZNSt3__16vectorIP4CellNS_9allocatorIS2_EEE22__construct_one_at_endB7v160006IJRKS2_EEEvDpOT_, symObjAddr: 0x7AF0, symBinAddr: 0x100008DF0, symSize: 0x90 }
  - { offsetInCU: 0x221E1, offset: 0x221E1, size: 0x8, addend: 0x0, symName: __ZNSt3__16vectorIP4CellNS_9allocatorIS2_EEE21__push_back_slow_pathIRKS2_EEvOT_, symObjAddr: 0x7B80, symBinAddr: 0x100008E80, symSize: 0xD0 }
  - { offsetInCU: 0x2223F, offset: 0x2223F, size: 0x8, addend: 0x0, symName: __ZNSt3__117__compressed_pairIPP4CellNS_9allocatorIS2_EEE5firstB7v160006Ev, symObjAddr: 0x7C50, symBinAddr: 0x100008F50, symSize: 0x20 }
  - { offsetInCU: 0x22265, offset: 0x22265, size: 0x8, addend: 0x0, symName: __ZNSt3__122__compressed_pair_elemIPP4CellLi0ELb0EE5__getB7v160006Ev, symObjAddr: 0x7C70, symBinAddr: 0x100008F70, symSize: 0x10 }
  - { offsetInCU: 0x222A4, offset: 0x222A4, size: 0x8, addend: 0x0, symName: __ZNSt3__16vectorIP4CellNS_9allocatorIS2_EEE21_ConstructTransactionC1B7v160006ERS5_m, symObjAddr: 0x7C80, symBinAddr: 0x100008F80, symSize: 0x30 }
  - { offsetInCU: 0x222EC, offset: 0x222EC, size: 0x8, addend: 0x0, symName: __ZNSt3__116allocator_traitsINS_9allocatorIP4CellEEE9constructB7v160006IS3_JRKS3_EvEEvRS4_PT_DpOT0_, symObjAddr: 0x7CB0, symBinAddr: 0x100008FB0, symSize: 0x30 }
  - { offsetInCU: 0x22343, offset: 0x22343, size: 0x8, addend: 0x0, symName: __ZNSt3__16vectorIP4CellNS_9allocatorIS2_EEE7__allocB7v160006Ev, symObjAddr: 0x7CE0, symBinAddr: 0x100008FE0, symSize: 0x20 }
  - { offsetInCU: 0x22369, offset: 0x22369, size: 0x8, addend: 0x0, symName: __ZNSt3__16vectorIP4CellNS_9allocatorIS2_EEE21_ConstructTransactionD1B7v160006Ev, symObjAddr: 0x7D10, symBinAddr: 0x100009010, symSize: 0x20 }
  - { offsetInCU: 0x22393, offset: 0x22393, size: 0x8, addend: 0x0, symName: __ZNSt3__16vectorIP4CellNS_9allocatorIS2_EEE21_ConstructTransactionC2B7v160006ERS5_m, symObjAddr: 0x7D30, symBinAddr: 0x100009030, symSize: 0x40 }
  - { offsetInCU: 0x223DB, offset: 0x223DB, size: 0x8, addend: 0x0, symName: __ZNSt3__19allocatorIP4CellE9constructB7v160006IS2_JRKS2_EEEvPT_DpOT0_, symObjAddr: 0x7D70, symBinAddr: 0x100009070, symSize: 0x20 }
  - { offsetInCU: 0x22431, offset: 0x22431, size: 0x8, addend: 0x0, symName: __ZNSt3__117__compressed_pairIPP4CellNS_9allocatorIS2_EEE6secondB7v160006Ev, symObjAddr: 0x7D90, symBinAddr: 0x100009090, symSize: 0x20 }
  - { offsetInCU: 0x22457, offset: 0x22457, size: 0x8, addend: 0x0, symName: __ZNSt3__122__compressed_pair_elemINS_9allocatorIP4CellEELi1ELb1EE5__getB7v160006Ev, symObjAddr: 0x7DB0, symBinAddr: 0x1000090B0, symSize: 0x10 }
  - { offsetInCU: 0x2247D, offset: 0x2247D, size: 0x8, addend: 0x0, symName: __ZNSt3__16vectorIP4CellNS_9allocatorIS2_EEE21_ConstructTransactionD2B7v160006Ev, symObjAddr: 0x7DC0, symBinAddr: 0x1000090C0, symSize: 0x20 }
  - { offsetInCU: 0x224A7, offset: 0x224A7, size: 0x8, addend: 0x0, symName: __ZNKSt3__16vectorIP4CellNS_9allocatorIS2_EEE11__recommendB7v160006Em, symObjAddr: 0x7DE0, symBinAddr: 0x1000090E0, symSize: 0xA0 }
  - { offsetInCU: 0x224FC, offset: 0x224FC, size: 0x8, addend: 0x0, symName: __ZNKSt3__16vectorIP4CellNS_9allocatorIS2_EEE4sizeB7v160006Ev, symObjAddr: 0x7E80, symBinAddr: 0x100009180, symSize: 0x20 }
  - { offsetInCU: 0x22522, offset: 0x22522, size: 0x8, addend: 0x0, symName: __ZNSt3__114__split_bufferIP4CellRNS_9allocatorIS2_EEEC1EmmS5_, symObjAddr: 0x7EA0, symBinAddr: 0x1000091A0, symSize: 0x40 }
  - { offsetInCU: 0x22578, offset: 0x22578, size: 0x8, addend: 0x0, symName: __ZNSt3__114__split_bufferIP4CellRNS_9allocatorIS2_EEED1Ev, symObjAddr: 0x8010, symBinAddr: 0x100009310, symSize: 0x20 }
  - { offsetInCU: 0x225A4, offset: 0x225A4, size: 0x8, addend: 0x0, symName: __ZNKSt3__16vectorIP4CellNS_9allocatorIS2_EEE8max_sizeEv, symObjAddr: 0x8030, symBinAddr: 0x100009330, symSize: 0x60 }
  - { offsetInCU: 0x225CC, offset: 0x225CC, size: 0x8, addend: 0x0, symName: __ZNKSt3__16vectorIP4CellNS_9allocatorIS2_EEE20__throw_length_errorB7v160006Ev, symObjAddr: 0x8090, symBinAddr: 0x100009390, symSize: 0x20 }
  - { offsetInCU: 0x225F2, offset: 0x225F2, size: 0x8, addend: 0x0, symName: __ZNKSt3__16vectorIP4CellNS_9allocatorIS2_EEE8capacityB7v160006Ev, symObjAddr: 0x80B0, symBinAddr: 0x1000093B0, symSize: 0x30 }
  - { offsetInCU: 0x22622, offset: 0x22622, size: 0x8, addend: 0x0, symName: __ZNSt3__116allocator_traitsINS_9allocatorIP4CellEEE8max_sizeB7v160006IS4_vEEmRKS4_, symObjAddr: 0x80E0, symBinAddr: 0x1000093E0, symSize: 0x20 }
  - { offsetInCU: 0x22650, offset: 0x22650, size: 0x8, addend: 0x0, symName: __ZNKSt3__16vectorIP4CellNS_9allocatorIS2_EEE7__allocB7v160006Ev, symObjAddr: 0x8100, symBinAddr: 0x100009400, symSize: 0x20 }
  - { offsetInCU: 0x22676, offset: 0x22676, size: 0x8, addend: 0x0, symName: __ZNKSt3__19allocatorIP4CellE8max_sizeB7v160006Ev, symObjAddr: 0x8120, symBinAddr: 0x100009420, symSize: 0x20 }
  - { offsetInCU: 0x2269C, offset: 0x2269C, size: 0x8, addend: 0x0, symName: __ZNKSt3__117__compressed_pairIPP4CellNS_9allocatorIS2_EEE6secondB7v160006Ev, symObjAddr: 0x8140, symBinAddr: 0x100009440, symSize: 0x20 }
  - { offsetInCU: 0x226C2, offset: 0x226C2, size: 0x8, addend: 0x0, symName: __ZNKSt3__122__compressed_pair_elemINS_9allocatorIP4CellEELi1ELb1EE5__getB7v160006Ev, symObjAddr: 0x8160, symBinAddr: 0x100009460, symSize: 0x10 }
  - { offsetInCU: 0x226E8, offset: 0x226E8, size: 0x8, addend: 0x0, symName: __ZNKSt3__16vectorIP4CellNS_9allocatorIS2_EEE9__end_capB7v160006Ev, symObjAddr: 0x8170, symBinAddr: 0x100009470, symSize: 0x20 }
  - { offsetInCU: 0x2270E, offset: 0x2270E, size: 0x8, addend: 0x0, symName: __ZNKSt3__117__compressed_pairIPP4CellNS_9allocatorIS2_EEE5firstB7v160006Ev, symObjAddr: 0x8190, symBinAddr: 0x100009490, symSize: 0x20 }
  - { offsetInCU: 0x22734, offset: 0x22734, size: 0x8, addend: 0x0, symName: __ZNKSt3__122__compressed_pair_elemIPP4CellLi0ELb0EE5__getB7v160006Ev, symObjAddr: 0x81B0, symBinAddr: 0x1000094B0, symSize: 0x10 }
  - { offsetInCU: 0x2275A, offset: 0x2275A, size: 0x8, addend: 0x0, symName: __ZNSt3__114__split_bufferIP4CellRNS_9allocatorIS2_EEEC2EmmS5_, symObjAddr: 0x81C0, symBinAddr: 0x1000094C0, symSize: 0xD0 }
  - { offsetInCU: 0x227CD, offset: 0x227CD, size: 0x8, addend: 0x0, symName: __ZNSt3__117__compressed_pairIPP4CellRNS_9allocatorIS2_EEEC1B7v160006IDnS6_EEOT_OT0_, symObjAddr: 0x8290, symBinAddr: 0x100009590, symSize: 0x30 }
  - { offsetInCU: 0x22825, offset: 0x22825, size: 0x8, addend: 0x0, symName: __ZNSt3__114__split_bufferIP4CellRNS_9allocatorIS2_EEE7__allocB7v160006Ev, symObjAddr: 0x8300, symBinAddr: 0x100009600, symSize: 0x20 }
  - { offsetInCU: 0x2284B, offset: 0x2284B, size: 0x8, addend: 0x0, symName: __ZNSt3__114__split_bufferIP4CellRNS_9allocatorIS2_EEE9__end_capB7v160006Ev, symObjAddr: 0x8320, symBinAddr: 0x100009620, symSize: 0x20 }
  - { offsetInCU: 0x22871, offset: 0x22871, size: 0x8, addend: 0x0, symName: __ZNSt3__117__compressed_pairIPP4CellRNS_9allocatorIS2_EEEC2B7v160006IDnS6_EEOT_OT0_, symObjAddr: 0x8340, symBinAddr: 0x100009640, symSize: 0x40 }
  - { offsetInCU: 0x228C9, offset: 0x228C9, size: 0x8, addend: 0x0, symName: __ZNSt3__122__compressed_pair_elemIRNS_9allocatorIP4CellEELi1ELb0EEC2B7v160006IS5_vEEOT_, symObjAddr: 0x8380, symBinAddr: 0x100009680, symSize: 0x20 }
  - { offsetInCU: 0x2290B, offset: 0x2290B, size: 0x8, addend: 0x0, symName: __ZNSt3__19allocatorIP4CellE8allocateB7v160006Em, symObjAddr: 0x83A0, symBinAddr: 0x1000096A0, symSize: 0x50 }
  - { offsetInCU: 0x2293F, offset: 0x2293F, size: 0x8, addend: 0x0, symName: __ZNSt3__117__compressed_pairIPP4CellRNS_9allocatorIS2_EEE6secondB7v160006Ev, symObjAddr: 0x83F0, symBinAddr: 0x1000096F0, symSize: 0x20 }
  - { offsetInCU: 0x22965, offset: 0x22965, size: 0x8, addend: 0x0, symName: __ZNSt3__122__compressed_pair_elemIRNS_9allocatorIP4CellEELi1ELb0EE5__getB7v160006Ev, symObjAddr: 0x8410, symBinAddr: 0x100009710, symSize: 0x20 }
  - { offsetInCU: 0x2298B, offset: 0x2298B, size: 0x8, addend: 0x0, symName: __ZNSt3__117__compressed_pairIPP4CellRNS_9allocatorIS2_EEE5firstB7v160006Ev, symObjAddr: 0x8430, symBinAddr: 0x100009730, symSize: 0x20 }
  - { offsetInCU: 0x229B1, offset: 0x229B1, size: 0x8, addend: 0x0, symName: __ZNKSt3__16vectorIP4CellNS_9allocatorIS2_EEE17__annotate_deleteB7v160006Ev, symObjAddr: 0x8450, symBinAddr: 0x100009750, symSize: 0xB0 }
  - { offsetInCU: 0x229D7, offset: 0x229D7, size: 0x8, addend: 0x0, symName: __ZNSt3__116reverse_iteratorIPP4CellEC1B7v160006ES3_, symObjAddr: 0x8570, symBinAddr: 0x100009870, symSize: 0x30 }
  - { offsetInCU: 0x22A0F, offset: 0x22A0F, size: 0x8, addend: 0x0, symName: __ZNKSt3__116reverse_iteratorIPP4CellE4baseB7v160006Ev, symObjAddr: 0x85A0, symBinAddr: 0x1000098A0, symSize: 0x20 }
  - { offsetInCU: 0x22A35, offset: 0x22A35, size: 0x8, addend: 0x0, symName: __ZNKSt3__16vectorIP4CellNS_9allocatorIS2_EEE14__annotate_newB7v160006Em, symObjAddr: 0x8600, symBinAddr: 0x100009900, symSize: 0xB0 }
  - { offsetInCU: 0x22A6A, offset: 0x22A6A, size: 0x8, addend: 0x0, symName: __ZNKSt3__16vectorIP4CellNS_9allocatorIS2_EEE31__annotate_contiguous_containerB7v160006EPKvS7_S7_S7_, symObjAddr: 0x86C0, symBinAddr: 0x1000099C0, symSize: 0x20 }
  - { offsetInCU: 0x22ABC, offset: 0x22ABC, size: 0x8, addend: 0x0, symName: __ZNKSt3__16vectorIP4CellNS_9allocatorIS2_EEE4dataB7v160006Ev, symObjAddr: 0x86E0, symBinAddr: 0x1000099E0, symSize: 0x20 }
  - { offsetInCU: 0x22B05, offset: 0x22B05, size: 0x8, addend: 0x0, symName: __ZNKSt3__111__move_loopINS_17_ClassicAlgPolicyEEclB7v160006INS_16reverse_iteratorIPP4CellEES8_S8_EENS_4pairIT_T1_EESA_T0_SB_, symObjAddr: 0x8B40, symBinAddr: 0x100009E40, symSize: 0xA0 }
  - { offsetInCU: 0x22B75, offset: 0x22B75, size: 0x8, addend: 0x0, symName: __ZNSt3__18_IterOpsINS_17_ClassicAlgPolicyEE11__iter_moveB7v160006IRNS_16reverse_iteratorIPP4CellEEEENS_9enable_ifIXsr12is_referenceIDTdeclsr3stdE7declvalIRT_EEEEE5valueEDTclsr3stdE4movedeclsr3stdE7declvalISC_EEEEE4typeEOSB_, symObjAddr: 0x8D60, symBinAddr: 0x10000A060, symSize: 0x20 }
  - { offsetInCU: 0x22BA1, offset: 0x22BA1, size: 0x8, addend: 0x0, symName: __ZNKSt3__116reverse_iteratorIPP4CellEdeB7v160006Ev, symObjAddr: 0x8D80, symBinAddr: 0x10000A080, symSize: 0x30 }
  - { offsetInCU: 0x22BD5, offset: 0x22BD5, size: 0x8, addend: 0x0, symName: __ZNSt3__116reverse_iteratorIPP4CellEppB7v160006Ev, symObjAddr: 0x8DB0, symBinAddr: 0x10000A0B0, symSize: 0x20 }
  - { offsetInCU: 0x22BFB, offset: 0x22BFB, size: 0x8, addend: 0x0, symName: __ZNSt3__18_IterOpsINS_17_ClassicAlgPolicyEE25__validate_iter_referenceB7v160006IRNS_16reverse_iteratorIPP4CellEEEEvv, symObjAddr: 0x8DD0, symBinAddr: 0x10000A0D0, symSize: 0x10 }
  - { offsetInCU: 0x22C19, offset: 0x22C19, size: 0x8, addend: 0x0, symName: __ZNSt3__118__unwrap_iter_implINS_16reverse_iteratorIPP4CellEELb0EE8__unwrapB7v160006ES5_, symObjAddr: 0x8DE0, symBinAddr: 0x10000A0E0, symSize: 0x20 }
  - { offsetInCU: 0x22C41, offset: 0x22C41, size: 0x8, addend: 0x0, symName: __ZNSt3__14pairINS_16reverse_iteratorIPP4CellEES5_EC1B7v160006IS5_S5_LPv0EEEOT_OT0_, symObjAddr: 0x8E00, symBinAddr: 0x10000A100, symSize: 0x30 }
  - { offsetInCU: 0x22C9F, offset: 0x22C9F, size: 0x8, addend: 0x0, symName: __ZNSt3__14pairINS_16reverse_iteratorIPP4CellEES5_EC2B7v160006IS5_S5_LPv0EEEOT_OT0_, symObjAddr: 0x8E30, symBinAddr: 0x10000A130, symSize: 0x40 }
  - { offsetInCU: 0x22CFD, offset: 0x22CFD, size: 0x8, addend: 0x0, symName: __ZNSt3__118__unwrap_iter_implINS_16reverse_iteratorIPP4CellEELb0EE8__rewrapB7v160006ES5_S5_, symObjAddr: 0x8E70, symBinAddr: 0x10000A170, symSize: 0x30 }
  - { offsetInCU: 0x22D2A, offset: 0x22D2A, size: 0x8, addend: 0x0, symName: __ZNSt3__116reverse_iteratorIPP4CellEC2B7v160006ES3_, symObjAddr: 0x8EA0, symBinAddr: 0x10000A1A0, symSize: 0x30 }
  - { offsetInCU: 0x22D62, offset: 0x22D62, size: 0x8, addend: 0x0, symName: __ZNSt3__114__split_bufferIP4CellRNS_9allocatorIS2_EEED2Ev, symObjAddr: 0x8ED0, symBinAddr: 0x10000A1D0, symSize: 0x70 }
  - { offsetInCU: 0x22D8E, offset: 0x22D8E, size: 0x8, addend: 0x0, symName: __ZNSt3__114__split_bufferIP4CellRNS_9allocatorIS2_EEE5clearB7v160006Ev, symObjAddr: 0x8F40, symBinAddr: 0x10000A240, symSize: 0x20 }
  - { offsetInCU: 0x22DB4, offset: 0x22DB4, size: 0x8, addend: 0x0, symName: __ZNSt3__116allocator_traitsINS_9allocatorIP4CellEEE10deallocateB7v160006ERS4_PS3_m, symObjAddr: 0x8F60, symBinAddr: 0x10000A260, symSize: 0x30 }
  - { offsetInCU: 0x22DF6, offset: 0x22DF6, size: 0x8, addend: 0x0, symName: __ZNKSt3__114__split_bufferIP4CellRNS_9allocatorIS2_EEE8capacityB7v160006Ev, symObjAddr: 0x8F90, symBinAddr: 0x10000A290, symSize: 0x30 }
  - { offsetInCU: 0x22E1C, offset: 0x22E1C, size: 0x8, addend: 0x0, symName: __ZNSt3__114__split_bufferIP4CellRNS_9allocatorIS2_EEE17__destruct_at_endB7v160006EPS2_, symObjAddr: 0x8FC0, symBinAddr: 0x10000A2C0, symSize: 0x30 }
  - { offsetInCU: 0x22E50, offset: 0x22E50, size: 0x8, addend: 0x0, symName: __ZNSt3__114__split_bufferIP4CellRNS_9allocatorIS2_EEE17__destruct_at_endB7v160006EPS2_NS_17integral_constantIbLb0EEE, symObjAddr: 0x8FF0, symBinAddr: 0x10000A2F0, symSize: 0x80 }
  - { offsetInCU: 0x22E90, offset: 0x22E90, size: 0x8, addend: 0x0, symName: __ZNSt3__116allocator_traitsINS_9allocatorIP4CellEEE7destroyB7v160006IS3_vEEvRS4_PT_, symObjAddr: 0x9070, symBinAddr: 0x10000A370, symSize: 0x30 }
  - { offsetInCU: 0x22ECD, offset: 0x22ECD, size: 0x8, addend: 0x0, symName: __ZNSt3__19allocatorIP4CellE7destroyB7v160006EPS2_, symObjAddr: 0x90A0, symBinAddr: 0x10000A3A0, symSize: 0x10 }
  - { offsetInCU: 0x22F01, offset: 0x22F01, size: 0x8, addend: 0x0, symName: __ZNSt3__19allocatorIP4CellE10deallocateB7v160006EPS2_m, symObjAddr: 0x90B0, symBinAddr: 0x10000A3B0, symSize: 0x40 }
  - { offsetInCU: 0x22F43, offset: 0x22F43, size: 0x8, addend: 0x0, symName: __ZNKSt3__114__split_bufferIP4CellRNS_9allocatorIS2_EEE9__end_capB7v160006Ev, symObjAddr: 0x90F0, symBinAddr: 0x10000A3F0, symSize: 0x20 }
  - { offsetInCU: 0x22F69, offset: 0x22F69, size: 0x8, addend: 0x0, symName: __ZNKSt3__117__compressed_pairIPP4CellRNS_9allocatorIS2_EEE5firstB7v160006Ev, symObjAddr: 0x9110, symBinAddr: 0x10000A410, symSize: 0x20 }
  - { offsetInCU: 0x22F8F, offset: 0x22F8F, size: 0x8, addend: 0x0, symName: __ZNSt3__16vectorIP4CellNS_9allocatorIS2_EEED2B7v160006Ev, symObjAddr: 0x9130, symBinAddr: 0x10000A430, symSize: 0x40 }
  - { offsetInCU: 0x22FB9, offset: 0x22FB9, size: 0x8, addend: 0x0, symName: __ZNSt3__16vectorIP4CellNS_9allocatorIS2_EEE16__destroy_vectorC1ERS5_, symObjAddr: 0x9170, symBinAddr: 0x10000A470, symSize: 0x30 }
  - { offsetInCU: 0x22FF2, offset: 0x22FF2, size: 0x8, addend: 0x0, symName: __ZNSt3__16vectorIP4CellNS_9allocatorIS2_EEE16__destroy_vectorclB7v160006Ev, symObjAddr: 0x91A0, symBinAddr: 0x10000A4A0, symSize: 0x90 }
  - { offsetInCU: 0x23018, offset: 0x23018, size: 0x8, addend: 0x0, symName: __ZNSt3__16vectorIP4CellNS_9allocatorIS2_EEE16__destroy_vectorC2ERS5_, symObjAddr: 0x9230, symBinAddr: 0x10000A530, symSize: 0x20 }
  - { offsetInCU: 0x23051, offset: 0x23051, size: 0x8, addend: 0x0, symName: __ZNSt3__16vectorIP4CellNS_9allocatorIS2_EEE7__clearB7v160006Ev, symObjAddr: 0x9260, symBinAddr: 0x10000A560, symSize: 0x20 }
  - { offsetInCU: 0x23077, offset: 0x23077, size: 0x8, addend: 0x0, symName: __ZNSt3__16vectorIP4CellNS_9allocatorIS2_EEE22__base_destruct_at_endB7v160006EPS2_, symObjAddr: 0x9280, symBinAddr: 0x10000A580, symSize: 0x80 }
  - { offsetInCU: 0x230BB, offset: 0x230BB, size: 0x8, addend: 0x0, symName: __ZN2sf15ContextSettingsC2Ejjjjjjb, symObjAddr: 0x9300, symBinAddr: 0x10000A600, symSize: 0x60 }
  - { offsetInCU: 0x23147, offset: 0x23147, size: 0x8, addend: 0x0, symName: __ZN2sf6StringD2Ev, symObjAddr: 0x9360, symBinAddr: 0x10000A660, symSize: 0x20 }
  - { offsetInCU: 0x23173, offset: 0x23173, size: 0x8, addend: 0x0, symName: __ZNSt3__112basic_stringIjNS_11char_traitsIjEENS_9allocatorIjEEED1Ev, symObjAddr: 0x9380, symBinAddr: 0x10000A680, symSize: 0x20 }
  - { offsetInCU: 0x2319F, offset: 0x2319F, size: 0x8, addend: 0x0, symName: __ZNSt3__112basic_stringIjNS_11char_traitsIjEENS_9allocatorIjEEED2Ev, symObjAddr: 0x93A0, symBinAddr: 0x10000A6A0, symSize: 0x80 }
  - { offsetInCU: 0x231CB, offset: 0x231CB, size: 0x8, addend: 0x0, symName: __ZNKSt3__112basic_stringIjNS_11char_traitsIjEENS_9allocatorIjEEE9__is_longB7v160006Ev, symObjAddr: 0x9430, symBinAddr: 0x10000A730, symSize: 0x30 }
  - { offsetInCU: 0x231F1, offset: 0x231F1, size: 0x8, addend: 0x0, symName: __ZNSt3__116allocator_traitsINS_9allocatorIjEEE10deallocateB7v160006ERS2_Pjm, symObjAddr: 0x9460, symBinAddr: 0x10000A760, symSize: 0x30 }
  - { offsetInCU: 0x23233, offset: 0x23233, size: 0x8, addend: 0x0, symName: __ZNSt3__112basic_stringIjNS_11char_traitsIjEENS_9allocatorIjEEE7__allocB7v160006Ev, symObjAddr: 0x9490, symBinAddr: 0x10000A790, symSize: 0x20 }
  - { offsetInCU: 0x23259, offset: 0x23259, size: 0x8, addend: 0x0, symName: __ZNSt3__112basic_stringIjNS_11char_traitsIjEENS_9allocatorIjEEE18__get_long_pointerB7v160006Ev, symObjAddr: 0x94B0, symBinAddr: 0x10000A7B0, symSize: 0x20 }
  - { offsetInCU: 0x2327F, offset: 0x2327F, size: 0x8, addend: 0x0, symName: __ZNKSt3__112basic_stringIjNS_11char_traitsIjEENS_9allocatorIjEEE14__get_long_capB7v160006Ev, symObjAddr: 0x94D0, symBinAddr: 0x10000A7D0, symSize: 0x30 }
  - { offsetInCU: 0x232A5, offset: 0x232A5, size: 0x8, addend: 0x0, symName: __ZNKSt3__117__compressed_pairINS_12basic_stringIjNS_11char_traitsIjEENS_9allocatorIjEEE5__repES5_E5firstB7v160006Ev, symObjAddr: 0x9500, symBinAddr: 0x10000A800, symSize: 0x20 }
  - { offsetInCU: 0x232CB, offset: 0x232CB, size: 0x8, addend: 0x0, symName: __ZNKSt3__122__compressed_pair_elemINS_12basic_stringIjNS_11char_traitsIjEENS_9allocatorIjEEE5__repELi0ELb0EE5__getB7v160006Ev, symObjAddr: 0x9520, symBinAddr: 0x10000A820, symSize: 0x10 }
  - { offsetInCU: 0x232F1, offset: 0x232F1, size: 0x8, addend: 0x0, symName: __ZNSt3__19allocatorIjE10deallocateB7v160006EPjm, symObjAddr: 0x9530, symBinAddr: 0x10000A830, symSize: 0x40 }
  - { offsetInCU: 0x23333, offset: 0x23333, size: 0x8, addend: 0x0, symName: __ZNSt3__117__compressed_pairINS_12basic_stringIjNS_11char_traitsIjEENS_9allocatorIjEEE5__repES5_E6secondB7v160006Ev, symObjAddr: 0x9570, symBinAddr: 0x10000A870, symSize: 0x20 }
  - { offsetInCU: 0x23359, offset: 0x23359, size: 0x8, addend: 0x0, symName: __ZNSt3__122__compressed_pair_elemINS_9allocatorIjEELi1ELb1EE5__getB7v160006Ev, symObjAddr: 0x9590, symBinAddr: 0x10000A890, symSize: 0x10 }
  - { offsetInCU: 0x2337F, offset: 0x2337F, size: 0x8, addend: 0x0, symName: __ZNSt3__117__compressed_pairINS_12basic_stringIjNS_11char_traitsIjEENS_9allocatorIjEEE5__repES5_E5firstB7v160006Ev, symObjAddr: 0x95A0, symBinAddr: 0x10000A8A0, symSize: 0x20 }
  - { offsetInCU: 0x233A5, offset: 0x233A5, size: 0x8, addend: 0x0, symName: __ZNSt3__122__compressed_pair_elemINS_12basic_stringIjNS_11char_traitsIjEENS_9allocatorIjEEE5__repELi0ELb0EE5__getB7v160006Ev, symObjAddr: 0x95C0, symBinAddr: 0x10000A8C0, symSize: 0x10 }
  - { offsetInCU: 0x233CB, offset: 0x233CB, size: 0x8, addend: 0x0, symName: __ZN4Cell4drawERN2sf12RenderWindowE, symObjAddr: 0x95D0, symBinAddr: 0x10000A8D0, symSize: 0x40 }
  - { offsetInCU: 0x233FF, offset: 0x233FF, size: 0x8, addend: 0x0, symName: __ZN4GameD2Ev, symObjAddr: 0x9610, symBinAddr: 0x10000A910, symSize: 0x30 }
  - { offsetInCU: 0x2342B, offset: 0x2342B, size: 0x8, addend: 0x0, symName: __ZN4GridD2Ev, symObjAddr: 0x9640, symBinAddr: 0x10000A940, symSize: 0x20 }
  - { offsetInCU: 0x23457, offset: 0x23457, size: 0x8, addend: 0x0, symName: __ZNSt3__123mersenne_twister_engineIjLm32ELm624ELm397ELm31ELj2567483615ELm11ELj4294967295ELm7ELj2636928640ELm15ELj4022730752ELm18ELj1812433253EEC2B7v160006Ej, symObjAddr: 0x9660, symBinAddr: 0x10000A960, symSize: 0x30 }
  - { offsetInCU: 0x2348F, offset: 0x2348F, size: 0x8, addend: 0x0, symName: __ZNSt3__123mersenne_twister_engineIjLm32ELm624ELm397ELm31ELj2567483615ELm11ELj4294967295ELm7ELj2636928640ELm15ELj4022730752ELm18ELj1812433253EE4seedEj, symObjAddr: 0x9690, symBinAddr: 0x10000A990, symSize: 0xB0 }
  - { offsetInCU: 0x234E2, offset: 0x234E2, size: 0x8, addend: 0x0, symName: __ZNSt3__123mersenne_twister_engineIjLm32ELm624ELm397ELm31ELj2567483615ELm11ELj4294967295ELm7ELj2636928640ELm15ELj4022730752ELm18ELj1812433253EE8__rshiftB7v160006ILm30EEENS_9enable_ifIXltT_L_ZNS1_3_DtEEEjE4typeEj, symObjAddr: 0x9740, symBinAddr: 0x10000AA40, symSize: 0x10 }
  - { offsetInCU: 0x2350F, offset: 0x2350F, size: 0x8, addend: 0x0, symName: __ZNSt3__124uniform_int_distributionIiEC2Eii, symObjAddr: 0x9750, symBinAddr: 0x10000AA50, symSize: 0x30 }
  - { offsetInCU: 0x23555, offset: 0x23555, size: 0x8, addend: 0x0, symName: __ZNSt3__124uniform_int_distributionIiE10param_typeC1Eii, symObjAddr: 0x9780, symBinAddr: 0x10000AA80, symSize: 0x30 }
  - { offsetInCU: 0x2359B, offset: 0x2359B, size: 0x8, addend: 0x0, symName: __ZNSt3__124uniform_int_distributionIiE10param_typeC2Eii, symObjAddr: 0x97B0, symBinAddr: 0x10000AAB0, symSize: 0x20 }
  - { offsetInCU: 0x235E1, offset: 0x235E1, size: 0x8, addend: 0x0, symName: __ZNKSt3__124uniform_int_distributionIiE10param_type1bEv, symObjAddr: 0x9920, symBinAddr: 0x10000AC20, symSize: 0x20 }
  - { offsetInCU: 0x23607, offset: 0x23607, size: 0x8, addend: 0x0, symName: __ZNKSt3__124uniform_int_distributionIiE10param_type1aEv, symObjAddr: 0x9940, symBinAddr: 0x10000AC40, symSize: 0x10 }
  - { offsetInCU: 0x2362D, offset: 0x2362D, size: 0x8, addend: 0x0, symName: __ZNSt3__125__independent_bits_engineINS_23mersenne_twister_engineIjLm32ELm624ELm397ELm31ELj2567483615ELm11ELj4294967295ELm7ELj2636928640ELm15ELj4022730752ELm18ELj1812433253EEEjEC1ERS2_m, symObjAddr: 0x9950, symBinAddr: 0x10000AC50, symSize: 0x30 }
  - { offsetInCU: 0x23674, offset: 0x23674, size: 0x8, addend: 0x0, symName: __ZNSt3__125__independent_bits_engineINS_23mersenne_twister_engineIjLm32ELm624ELm397ELm31ELj2567483615ELm11ELj4294967295ELm7ELj2636928640ELm15ELj4022730752ELm18ELj1812433253EEEjEclEv, symObjAddr: 0x9980, symBinAddr: 0x10000AC80, symSize: 0x20 }
  - { offsetInCU: 0x2369A, offset: 0x2369A, size: 0x8, addend: 0x0, symName: __ZNSt3__114numeric_limitsIjE3maxB7v160006Ev, symObjAddr: 0x99E0, symBinAddr: 0x10000ACE0, symSize: 0x10 }
  - { offsetInCU: 0x236AE, offset: 0x236AE, size: 0x8, addend: 0x0, symName: __ZNSt3__125__independent_bits_engineINS_23mersenne_twister_engineIjLm32ELm624ELm397ELm31ELj2567483615ELm11ELj4294967295ELm7ELj2636928640ELm15ELj4022730752ELm18ELj1812433253EEEjEC2ERS2_m, symObjAddr: 0x99F0, symBinAddr: 0x10000ACF0, symSize: 0x1D0 }
  - { offsetInCU: 0x236F5, offset: 0x236F5, size: 0x8, addend: 0x0, symName: __ZNSt3__125__independent_bits_engineINS_23mersenne_twister_engineIjLm32ELm624ELm397ELm31ELj2567483615ELm11ELj4294967295ELm7ELj2636928640ELm15ELj4022730752ELm18ELj1812433253EEEjE6__evalENS_17integral_constantIbLb0EEE, symObjAddr: 0x9BC0, symBinAddr: 0x10000AEC0, symSize: 0x30 }
  - { offsetInCU: 0x23726, offset: 0x23726, size: 0x8, addend: 0x0, symName: __ZNSt3__123mersenne_twister_engineIjLm32ELm624ELm397ELm31ELj2567483615ELm11ELj4294967295ELm7ELj2636928640ELm15ELj4022730752ELm18ELj1812433253EEclEv, symObjAddr: 0x9BF0, symBinAddr: 0x10000AEF0, symSize: 0x130 }
  - { offsetInCU: 0x23799, offset: 0x23799, size: 0x8, addend: 0x0, symName: __ZNSt3__123mersenne_twister_engineIjLm32ELm624ELm397ELm31ELj2567483615ELm11ELj4294967295ELm7ELj2636928640ELm15ELj4022730752ELm18ELj1812433253EE8__rshiftB7v160006ILm1EEENS_9enable_ifIXltT_L_ZNS1_3_DtEEEjE4typeEj, symObjAddr: 0x9D20, symBinAddr: 0x10000B020, symSize: 0x10 }
  - { offsetInCU: 0x237C6, offset: 0x237C6, size: 0x8, addend: 0x0, symName: __ZNSt3__123mersenne_twister_engineIjLm32ELm624ELm397ELm31ELj2567483615ELm11ELj4294967295ELm7ELj2636928640ELm15ELj4022730752ELm18ELj1812433253EE8__rshiftB7v160006ILm11EEENS_9enable_ifIXltT_L_ZNS1_3_DtEEEjE4typeEj, symObjAddr: 0x9D30, symBinAddr: 0x10000B030, symSize: 0x10 }
  - { offsetInCU: 0x237F3, offset: 0x237F3, size: 0x8, addend: 0x0, symName: __ZNSt3__123mersenne_twister_engineIjLm32ELm624ELm397ELm31ELj2567483615ELm11ELj4294967295ELm7ELj2636928640ELm15ELj4022730752ELm18ELj1812433253EE8__lshiftB7v160006ILm7EEENS_9enable_ifIXltT_Lm32EEjE4typeEj, symObjAddr: 0x9D40, symBinAddr: 0x10000B040, symSize: 0x20 }
  - { offsetInCU: 0x23820, offset: 0x23820, size: 0x8, addend: 0x0, symName: __ZNSt3__123mersenne_twister_engineIjLm32ELm624ELm397ELm31ELj2567483615ELm11ELj4294967295ELm7ELj2636928640ELm15ELj4022730752ELm18ELj1812433253EE8__lshiftB7v160006ILm15EEENS_9enable_ifIXltT_Lm32EEjE4typeEj, symObjAddr: 0x9D60, symBinAddr: 0x10000B060, symSize: 0x20 }
  - { offsetInCU: 0x2384D, offset: 0x2384D, size: 0x8, addend: 0x0, symName: __ZNSt3__123mersenne_twister_engineIjLm32ELm624ELm397ELm31ELj2567483615ELm11ELj4294967295ELm7ELj2636928640ELm15ELj4022730752ELm18ELj1812433253EE8__rshiftB7v160006ILm18EEENS_9enable_ifIXltT_L_ZNS1_3_DtEEEjE4typeEj, symObjAddr: 0x9D80, symBinAddr: 0x10000B080, symSize: 0x10 }
  - { offsetInCU: 0x2387A, offset: 0x2387A, size: 0x8, addend: 0x0, symName: __ZNSt3__123__libcpp_numeric_limitsIjLb1EE3maxB7v160006Ev, symObjAddr: 0x9DB0, symBinAddr: 0x10000B0B0, symSize: 0x10 }
  - { offsetInCU: 0x2388E, offset: 0x2388E, size: 0x8, addend: 0x0, symName: __ZNSt3__125uniform_real_distributionIfEC2Eff, symObjAddr: 0x9DC0, symBinAddr: 0x10000B0C0, symSize: 0x30 }
  - { offsetInCU: 0x238D4, offset: 0x238D4, size: 0x8, addend: 0x0, symName: __ZNSt3__125uniform_real_distributionIfE10param_typeC1B7v160006Eff, symObjAddr: 0x9DF0, symBinAddr: 0x10000B0F0, symSize: 0x30 }
  - { offsetInCU: 0x2391A, offset: 0x2391A, size: 0x8, addend: 0x0, symName: __ZNSt3__125uniform_real_distributionIfE10param_typeC2B7v160006Eff, symObjAddr: 0x9E20, symBinAddr: 0x10000B120, symSize: 0x30 }
  - { offsetInCU: 0x23960, offset: 0x23960, size: 0x8, addend: 0x0, symName: __ZNSt3__125uniform_real_distributionIfEclINS_23mersenne_twister_engineIjLm32ELm624ELm397ELm31ELj2567483615ELm11ELj4294967295ELm7ELj2636928640ELm15ELj4022730752ELm18ELj1812433253EEEEEfRT_RKNS1_10param_typeE, symObjAddr: 0x9E50, symBinAddr: 0x10000B150, symSize: 0x70 }
  - { offsetInCU: 0x239AC, offset: 0x239AC, size: 0x8, addend: 0x0, symName: __ZNKSt3__125uniform_real_distributionIfE10param_type1bB7v160006Ev, symObjAddr: 0x9EC0, symBinAddr: 0x10000B1C0, symSize: 0x20 }
  - { offsetInCU: 0x239D2, offset: 0x239D2, size: 0x8, addend: 0x0, symName: __ZNKSt3__125uniform_real_distributionIfE10param_type1aB7v160006Ev, symObjAddr: 0x9EE0, symBinAddr: 0x10000B1E0, symSize: 0x20 }
  - { offsetInCU: 0x239F8, offset: 0x239F8, size: 0x8, addend: 0x0, symName: __ZNSt3__123mersenne_twister_engineIjLm32ELm624ELm397ELm31ELj2567483615ELm11ELj4294967295ELm7ELj2636928640ELm15ELj4022730752ELm18ELj1812433253EE3maxB7v160006Ev, symObjAddr: 0xA000, symBinAddr: 0x10000B300, symSize: 0x10 }
  - { offsetInCU: 0x23A0C, offset: 0x23A0C, size: 0x8, addend: 0x0, symName: __ZNSt3__123mersenne_twister_engineIjLm32ELm624ELm397ELm31ELj2567483615ELm11ELj4294967295ELm7ELj2636928640ELm15ELj4022730752ELm18ELj1812433253EE3minB7v160006Ev, symObjAddr: 0xA010, symBinAddr: 0x10000B310, symSize: 0x10 }
  - { offsetInCU: 0x23A20, offset: 0x23A20, size: 0x8, addend: 0x0, symName: __ZN2sf7Vector2IfEC2Eff, symObjAddr: 0xA020, symBinAddr: 0x10000B320, symSize: 0x2B }
...
