---
triple:          'x86_64-apple-darwin'
binary-path:     '/Volumes/D-Drive/code/c++/tutorials/quad_tree/main'
relocations:
  - { offsetInCU: 0x3F, offset: 0x3F, size: 0x8, addend: 0x0, symName: _windowSize, symObjAddr: 0xA5D98, symBinAddr: 0x100014000, symSize: 0x0 }
  - { offsetInCU: 0x4BDC, offset: 0x4BDC, size: 0x8, addend: 0x0, symName: _bgColor, symObjAddr: 0xA5DA0, symBinAddr: 0x100014008, symSize: 0x0 }
  - { offsetInCU: 0x4C0E, offset: 0x4C0E, size: 0x8, addend: 0x0, symName: _framerate, symObjAddr: 0xA5DA4, symBinAddr: 0x10001400C, symSize: 0x0 }
  - { offsetInCU: 0x4C23, offset: 0x4C23, size: 0x8, addend: 0x0, symName: _font, symObjAddr: 0xA5DA8, symBinAddr: 0x100014010, symSize: 0x0 }
  - { offsetInCU: 0x16951, offset: 0x16951, size: 0x8, addend: 0x0, symName: __ZNSt3__17advanceB7v160006IPN2sf6VertexEmmvEEvRT_T0_, symObjAddr: 0x67E0, symBinAddr: 0x1000099B0, symSize: 0x50 }
  - { offsetInCU: 0x169BC, offset: 0x169BC, size: 0x8, addend: 0x0, symName: __ZNSt3__17advanceB7v160006IPN2sf7Vector2IfEEmmvEEvRT_T0_, symObjAddr: 0x71B0, symBinAddr: 0x10000A380, symSize: 0x50 }
  - { offsetInCU: 0x191B5, offset: 0x191B5, size: 0x8, addend: 0x0, symName: __ZNSt3__124__put_character_sequenceB7v160006IcNS_11char_traitsIcEEEERNS_13basic_ostreamIT_T0_EES7_PKS4_m, symObjAddr: 0xB4C0, symBinAddr: 0x10000E690, symSize: 0x1F0 }
  - { offsetInCU: 0x1B3AF, offset: 0x1B3AF, size: 0x8, addend: 0x0, symName: __ZNSt3__1lsB7v160006INS_11char_traitsIcEEEERNS_13basic_ostreamIcT_EES6_PKc, symObjAddr: 0x1530, symBinAddr: 0x100004700, symSize: 0x40 }
  - { offsetInCU: 0x1B3F5, offset: 0x1B3F5, size: 0x8, addend: 0x0, symName: __ZNSt3__14endlB7v160006IcNS_11char_traitsIcEEEERNS_13basic_ostreamIT_T0_EES7_, symObjAddr: 0x1590, symBinAddr: 0x100004760, symSize: 0x50 }
  - { offsetInCU: 0x1B435, offset: 0x1B435, size: 0x8, addend: 0x0, symName: __ZNSt3__118__debug_db_erase_cB7v160006INS_12basic_stringIjNS_11char_traitsIjEENS_9allocatorIjEEEEEEvPT_, symObjAddr: 0x20E0, symBinAddr: 0x1000052B0, symSize: 0x10 }
  - { offsetInCU: 0x1B466, offset: 0x1B466, size: 0x8, addend: 0x0, symName: __ZNSt3__119__libcpp_deallocateB7v160006EPvmm, symObjAddr: 0x2240, symBinAddr: 0x100005410, symSize: 0x60 }
  - { offsetInCU: 0x1B4CB, offset: 0x1B4CB, size: 0x8, addend: 0x0, symName: __ZNSt3__124__is_overaligned_for_newB7v160006Em, symObjAddr: 0x22A0, symBinAddr: 0x100005470, symSize: 0x20 }
  - { offsetInCU: 0x1B4F9, offset: 0x1B4F9, size: 0x8, addend: 0x0, symName: __ZNSt3__127__do_deallocate_handle_sizeB7v160006IJSt11align_val_tEEEvPvmDpT_, symObjAddr: 0x22C0, symBinAddr: 0x100005490, symSize: 0x30 }
  - { offsetInCU: 0x1B54C, offset: 0x1B54C, size: 0x8, addend: 0x0, symName: __ZNSt3__127__do_deallocate_handle_sizeB7v160006IJEEEvPvmDpT_, symObjAddr: 0x22F0, symBinAddr: 0x1000054C0, symSize: 0x20 }
  - { offsetInCU: 0x1B58A, offset: 0x1B58A, size: 0x8, addend: 0x0, symName: __ZNSt3__124__libcpp_operator_deleteB7v160006IJPvSt11align_val_tEEEvDpT_, symObjAddr: 0x2310, symBinAddr: 0x1000054E0, symSize: 0x30 }
  - { offsetInCU: 0x1B5D3, offset: 0x1B5D3, size: 0x8, addend: 0x0, symName: __ZNSt3__124__libcpp_operator_deleteB7v160006IJPvEEEvDpT_, symObjAddr: 0x2340, symBinAddr: 0x100005510, symSize: 0x20 }
  - { offsetInCU: 0x1B608, offset: 0x1B608, size: 0x8, addend: 0x0, symName: __ZNSt3__122__make_exception_guardB7v160006INS_6vectorIN2sf6VertexENS_9allocatorIS3_EEE16__destroy_vectorEEENS_28__exception_guard_exceptionsIT_EES9_, symObjAddr: 0x2C20, symBinAddr: 0x100005DF0, symSize: 0x40 }
  - { offsetInCU: 0x1B63D, offset: 0x1B63D, size: 0x8, addend: 0x0, symName: __ZNSt3__119__debug_db_insert_cB7v160006INS_6vectorIN2sf6VertexENS_9allocatorIS3_EEEEEEvPT_, symObjAddr: 0x2C90, symBinAddr: 0x100005E60, symSize: 0x10 }
  - { offsetInCU: 0x1B66E, offset: 0x1B66E, size: 0x8, addend: 0x0, symName: __ZNSt3__119__allocate_at_leastB7v160006INS_9allocatorIN2sf6VertexEEEEENS_19__allocation_resultINS_16allocator_traitsIT_E7pointerEEERS7_m, symObjAddr: 0x2FD0, symBinAddr: 0x1000061A0, symSize: 0x40 }
  - { offsetInCU: 0x1B6B1, offset: 0x1B6B1, size: 0x8, addend: 0x0, symName: __ZNSt3__13minB7v160006ImEERKT_S3_S3_, symObjAddr: 0x30F0, symBinAddr: 0x1000062C0, symSize: 0x30 }
  - { offsetInCU: 0x1B8DE, offset: 0x1B8DE, size: 0x8, addend: 0x0, symName: __ZNSt3__13minB7v160006ImNS_6__lessImmEEEERKT_S5_S5_T0_, symObjAddr: 0x3150, symBinAddr: 0x100006320, symSize: 0x50 }
  - { offsetInCU: 0x1B973, offset: 0x1B973, size: 0x8, addend: 0x0, symName: __ZNSt3__120__throw_length_errorB7v160006EPKc, symObjAddr: 0x3200, symBinAddr: 0x1000063D0, symSize: 0x70 }
  - { offsetInCU: 0x1B99B, offset: 0x1B99B, size: 0x8, addend: 0x0, symName: __ZNSt3__117__libcpp_allocateB7v160006Emm, symObjAddr: 0x3370, symBinAddr: 0x100006540, symSize: 0x60 }
  - { offsetInCU: 0x1B9F5, offset: 0x1B9F5, size: 0x8, addend: 0x0, symName: __ZNSt3__121__libcpp_operator_newB7v160006IJmSt11align_val_tEEEPvDpT_, symObjAddr: 0x33D0, symBinAddr: 0x1000065A0, symSize: 0x30 }
  - { offsetInCU: 0x1BA42, offset: 0x1BA42, size: 0x8, addend: 0x0, symName: __ZNSt3__121__libcpp_operator_newB7v160006IJmEEEPvDpT_, symObjAddr: 0x3400, symBinAddr: 0x1000065D0, symSize: 0x20 }
  - { offsetInCU: 0x1BA7B, offset: 0x1BA7B, size: 0x8, addend: 0x0, symName: __ZNSt3__112__to_addressB7v160006IN2sf6VertexEEEPT_S4_, symObjAddr: 0x3500, symBinAddr: 0x1000066D0, symSize: 0x10 }
  - { offsetInCU: 0x1BAB0, offset: 0x1BAB0, size: 0x8, addend: 0x0, symName: __ZNSt3__130__uninitialized_allocator_copyB7v160006INS_9allocatorIN2sf6VertexEEEPS3_S5_S5_EET2_RT_T0_T1_S6_, symObjAddr: 0x3590, symBinAddr: 0x100006760, symSize: 0x100 }
  - { offsetInCU: 0x1BB4E, offset: 0x1BB4E, size: 0x8, addend: 0x0, symName: __ZNSt3__122__make_exception_guardB7v160006INS_29_AllocatorDestroyRangeReverseINS_9allocatorIN2sf6VertexEEEPS4_EEEENS_28__exception_guard_exceptionsIT_EES9_, symObjAddr: 0x36F0, symBinAddr: 0x1000068C0, symSize: 0x60 }
  - { offsetInCU: 0x1BB83, offset: 0x1BB83, size: 0x8, addend: 0x0, symName: __ZNSt3__119__allocator_destroyB7v160006INS_9allocatorIN2sf6VertexEEENS_16reverse_iteratorIPS3_EES7_EEvRT_T0_T1_, symObjAddr: 0x3980, symBinAddr: 0x100006B50, symSize: 0x70 }
  - { offsetInCU: 0x1BBE6, offset: 0x1BBE6, size: 0x8, addend: 0x0, symName: __ZNSt3__1neB7v160006IPN2sf6VertexES3_EEbRKNS_16reverse_iteratorIT_EERKNS4_IT0_EE, symObjAddr: 0x3A20, symBinAddr: 0x100006BF0, symSize: 0x40 }
  - { offsetInCU: 0x1BC32, offset: 0x1BC32, size: 0x8, addend: 0x0, symName: __ZNSt3__112__to_addressB7v160006INS_16reverse_iteratorIPN2sf6VertexEEEvEENS_5decayIDTclsr19__to_address_helperIT_EE6__callclsr3stdE7declvalIRKS7_EEEEE4typeES9_, symObjAddr: 0x3A90, symBinAddr: 0x100006C60, symSize: 0x20 }
  - { offsetInCU: 0x1BC91, offset: 0x1BC91, size: 0x8, addend: 0x0, symName: __ZNSt3__118__debug_db_erase_cB7v160006INS_6vectorIN2sf6VertexENS_9allocatorIS3_EEEEEEvPT_, symObjAddr: 0x3D60, symBinAddr: 0x100006F30, symSize: 0x10 }
  - { offsetInCU: 0x1BCC2, offset: 0x1BCC2, size: 0x8, addend: 0x0, symName: __ZNSt3__119__debug_db_insert_cB7v160006INS_6vectorIN2sf7Vector2IfEENS_9allocatorIS4_EEEEEEvPT_, symObjAddr: 0x40C0, symBinAddr: 0x100007290, symSize: 0x10 }
  - { offsetInCU: 0x1BCF3, offset: 0x1BCF3, size: 0x8, addend: 0x0, symName: __ZNSt3__112__to_addressB7v160006IN2sf7Vector2IfEEEEPT_S5_, symObjAddr: 0x4D90, symBinAddr: 0x100007F60, symSize: 0x10 }
  - { offsetInCU: 0x1BD28, offset: 0x1BD28, size: 0x8, addend: 0x0, symName: __ZNSt3__13maxB7v160006ImEERKT_S3_S3_, symObjAddr: 0x5150, symBinAddr: 0x100008320, symSize: 0x30 }
  - { offsetInCU: 0x1BD6B, offset: 0x1BD6B, size: 0x8, addend: 0x0, symName: __ZNSt3__13maxB7v160006ImNS_6__lessImmEEEERKT_S5_S5_T0_, symObjAddr: 0x5260, symBinAddr: 0x100008430, symSize: 0x50 }
  - { offsetInCU: 0x1BDC5, offset: 0x1BDC5, size: 0x8, addend: 0x0, symName: __ZNSt3__119__allocate_at_leastB7v160006INS_9allocatorIN2sf7Vector2IfEEEEEENS_19__allocation_resultINS_16allocator_traitsIT_E7pointerEEERS8_m, symObjAddr: 0x53B0, symBinAddr: 0x100008580, symSize: 0x40 }
  - { offsetInCU: 0x1BE08, offset: 0x1BE08, size: 0x8, addend: 0x0, symName: __ZNSt3__142__uninitialized_allocator_move_if_noexceptB7v160006INS_9allocatorIN2sf7Vector2IfEEEENS_16reverse_iteratorIPS4_EES8_S4_vEET1_RT_T0_SC_S9_, symObjAddr: 0x55F0, symBinAddr: 0x1000087C0, symSize: 0x70 }
  - { offsetInCU: 0x1BE84, offset: 0x1BE84, size: 0x8, addend: 0x0, symName: __ZNSt3__14swapB7v160006IPN2sf7Vector2IfEEEENS_9enable_ifIXaasr21is_move_constructibleIT_EE5valuesr18is_move_assignableIS6_EE5valueEvE4typeERS6_S9_, symObjAddr: 0x56B0, symBinAddr: 0x100008880, symSize: 0x40 }
  - { offsetInCU: 0x1BED5, offset: 0x1BED5, size: 0x8, addend: 0x0, symName: __ZNSt3__125__debug_db_invalidate_allB7v160006INS_6vectorIN2sf7Vector2IfEENS_9allocatorIS4_EEEEEEvPT_, symObjAddr: 0x57A0, symBinAddr: 0x100008970, symSize: 0x10 }
  - { offsetInCU: 0x1BF06, offset: 0x1BF06, size: 0x8, addend: 0x0, symName: __ZNSt3__14moveB7v160006INS_16reverse_iteratorIPN2sf7Vector2IfEEEES6_EET0_T_S8_S7_, symObjAddr: 0x57F0, symBinAddr: 0x1000089C0, symSize: 0x80 }
  - { offsetInCU: 0x1BF60, offset: 0x1BF60, size: 0x8, addend: 0x0, symName: __ZNSt3__16__moveB7v160006INS_17_ClassicAlgPolicyENS_16reverse_iteratorIPN2sf7Vector2IfEEEES7_S7_EENS_4pairIT0_T2_EES9_T1_SA_, symObjAddr: 0x5870, symBinAddr: 0x100008A40, symSize: 0x90 }
  - { offsetInCU: 0x1BFCC, offset: 0x1BFCC, size: 0x8, addend: 0x0, symName: __ZNSt3__123__dispatch_copy_or_moveB7v160006INS_17_ClassicAlgPolicyENS_11__move_loopIS1_EENS_14__move_trivialENS_16reverse_iteratorIPN2sf7Vector2IfEEEESA_SA_EENS_4pairIT2_T4_EESC_T3_SD_, symObjAddr: 0x5900, symBinAddr: 0x100008AD0, symSize: 0x90 }
  - { offsetInCU: 0x1C04A, offset: 0x1C04A, size: 0x8, addend: 0x0, symName: __ZNSt3__121__unwrap_and_dispatchB7v160006INS_10__overloadINS_11__move_loopINS_17_ClassicAlgPolicyEEENS_14__move_trivialEEENS_16reverse_iteratorIPN2sf7Vector2IfEEEESC_SC_Li0EEENS_4pairIT0_T2_EESE_T1_SF_, symObjAddr: 0x5990, symBinAddr: 0x100008B60, symSize: 0x210 }
  - { offsetInCU: 0x1C0D9, offset: 0x1C0D9, size: 0x8, addend: 0x0, symName: __ZNSt3__114__unwrap_rangeB7v160006INS_16reverse_iteratorIPN2sf7Vector2IfEEEES6_EENS_4pairIT0_S8_EET_SA_, symObjAddr: 0x5BA0, symBinAddr: 0x100008D70, symSize: 0x90 }
  - { offsetInCU: 0x1C254, offset: 0x1C254, size: 0x8, addend: 0x0, symName: __ZNSt3__113__unwrap_iterB7v160006INS_16reverse_iteratorIPN2sf7Vector2IfEEEENS_18__unwrap_iter_implIS6_Lb0EEELi0EEEDTclsrT0_8__unwrapclsr3stdE7declvalIT_EEEESA_, symObjAddr: 0x5CD0, symBinAddr: 0x100008EA0, symSize: 0x40 }
  - { offsetInCU: 0x1C298, offset: 0x1C298, size: 0x8, addend: 0x0, symName: __ZNSt3__19make_pairB7v160006INS_16reverse_iteratorIPN2sf7Vector2IfEEEES6_EENS_4pairINS_18__unwrap_ref_decayIT_E4typeENS8_IT0_E4typeEEEOS9_OSC_, symObjAddr: 0x5D10, symBinAddr: 0x100008EE0, symSize: 0x30 }
  - { offsetInCU: 0x1C2E7, offset: 0x1C2E7, size: 0x8, addend: 0x0, symName: __ZNSt3__114__rewrap_rangeB7v160006INS_16reverse_iteratorIPN2sf7Vector2IfEEEES6_EET_S7_T0_, symObjAddr: 0x5D40, symBinAddr: 0x100008F10, symSize: 0x60 }
  - { offsetInCU: 0x1C333, offset: 0x1C333, size: 0x8, addend: 0x0, symName: __ZNSt3__113__rewrap_iterB7v160006INS_16reverse_iteratorIPN2sf7Vector2IfEEEES6_NS_18__unwrap_iter_implIS6_Lb0EEEEET_S9_T0_, symObjAddr: 0x5DA0, symBinAddr: 0x100008F70, symSize: 0x70 }
  - { offsetInCU: 0x1C388, offset: 0x1C388, size: 0x8, addend: 0x0, symName: __ZNSt3__1neB7v160006IPN2sf7Vector2IfEES4_EEbRKNS_16reverse_iteratorIT_EERKNS5_IT0_EE, symObjAddr: 0x5E10, symBinAddr: 0x100008FE0, symSize: 0x40 }
  - { offsetInCU: 0x1C486, offset: 0x1C486, size: 0x8, addend: 0x0, symName: __ZNSt3__18distanceB7v160006IPN2sf6VertexEEENS_15iterator_traitsIT_E15difference_typeES5_S5_, symObjAddr: 0x67B0, symBinAddr: 0x100009980, symSize: 0x30 }
  - { offsetInCU: 0x1C4C9, offset: 0x1C4C9, size: 0x8, addend: 0x0, symName: __ZNSt3__14copyB7v160006IPN2sf6VertexES3_EET0_T_S5_S4_, symObjAddr: 0x6830, symBinAddr: 0x100009A00, symSize: 0x40 }
  - { offsetInCU: 0x1C523, offset: 0x1C523, size: 0x8, addend: 0x0, symName: __ZNSt3__125__debug_db_invalidate_allB7v160006INS_6vectorIN2sf6VertexENS_9allocatorIS3_EEEEEEvPT_, symObjAddr: 0x69F0, symBinAddr: 0x100009BC0, symSize: 0x10 }
  - { offsetInCU: 0x1C554, offset: 0x1C554, size: 0x8, addend: 0x0, symName: __ZNSt3__110__distanceB7v160006IPN2sf6VertexEEENS_15iterator_traitsIT_E15difference_typeES5_S5_NS_26random_access_iterator_tagE, symObjAddr: 0x6A00, symBinAddr: 0x100009BD0, symSize: 0x30 }
  - { offsetInCU: 0x1C5A2, offset: 0x1C5A2, size: 0x8, addend: 0x0, symName: __ZNSt3__121__convert_to_integralB7v160006Em, symObjAddr: 0x6A30, symBinAddr: 0x100009C00, symSize: 0x10 }
  - { offsetInCU: 0x1C5CE, offset: 0x1C5CE, size: 0x8, addend: 0x0, symName: __ZNSt3__19__advanceB7v160006IPN2sf6VertexEEEvRT_NS_15iterator_traitsIS4_E15difference_typeENS_26random_access_iterator_tagE, symObjAddr: 0x6A40, symBinAddr: 0x100009C10, symSize: 0x20 }
  - { offsetInCU: 0x1C618, offset: 0x1C618, size: 0x8, addend: 0x0, symName: __ZNSt3__16__copyB7v160006INS_17_ClassicAlgPolicyEPN2sf6VertexES4_S4_EENS_4pairIT0_T2_EES6_T1_S7_, symObjAddr: 0x6A60, symBinAddr: 0x100009C30, symSize: 0x40 }
  - { offsetInCU: 0x1C684, offset: 0x1C684, size: 0x8, addend: 0x0, symName: __ZNSt3__123__dispatch_copy_or_moveB7v160006INS_17_ClassicAlgPolicyENS_11__copy_loopIS1_EENS_14__copy_trivialEPN2sf6VertexES7_S7_EENS_4pairIT2_T4_EES9_T3_SA_, symObjAddr: 0x6AA0, symBinAddr: 0x100009C70, symSize: 0x40 }
  - { offsetInCU: 0x1C702, offset: 0x1C702, size: 0x8, addend: 0x0, symName: __ZNSt3__121__unwrap_and_dispatchB7v160006INS_10__overloadINS_11__copy_loopINS_17_ClassicAlgPolicyEEENS_14__copy_trivialEEEPN2sf6VertexES9_S9_Li0EEENS_4pairIT0_T2_EESB_T1_SC_, symObjAddr: 0x6AE0, symBinAddr: 0x100009CB0, symSize: 0xB0 }
  - { offsetInCU: 0x1C791, offset: 0x1C791, size: 0x8, addend: 0x0, symName: __ZNSt3__114__unwrap_rangeB7v160006IPN2sf6VertexES3_EENS_4pairIT0_S5_EET_S7_, symObjAddr: 0x6B90, symBinAddr: 0x100009D60, symSize: 0x50 }
  - { offsetInCU: 0x1C962, offset: 0x1C962, size: 0x8, addend: 0x0, symName: __ZNSt3__113__unwrap_iterB7v160006IPN2sf6VertexENS_18__unwrap_iter_implIS3_Lb1EEELi0EEEDTclsrT0_8__unwrapclsr3stdE7declvalIT_EEEES7_, symObjAddr: 0x6C20, symBinAddr: 0x100009DF0, symSize: 0x20 }
  - { offsetInCU: 0x1C9A6, offset: 0x1C9A6, size: 0x8, addend: 0x0, symName: __ZNSt3__19make_pairB7v160006IPN2sf6VertexES3_EENS_4pairINS_18__unwrap_ref_decayIT_E4typeENS5_IT0_E4typeEEEOS6_OS9_, symObjAddr: 0x6C40, symBinAddr: 0x100009E10, symSize: 0x30 }
  - { offsetInCU: 0x1C9F5, offset: 0x1C9F5, size: 0x8, addend: 0x0, symName: __ZNSt3__114__rewrap_rangeB7v160006IPN2sf6VertexES3_EET_S4_T0_, symObjAddr: 0x6C70, symBinAddr: 0x100009E40, symSize: 0x30 }
  - { offsetInCU: 0x1CA41, offset: 0x1CA41, size: 0x8, addend: 0x0, symName: __ZNSt3__113__rewrap_iterB7v160006IPN2sf6VertexES3_NS_18__unwrap_iter_implIS3_Lb1EEEEET_S6_T0_, symObjAddr: 0x6CA0, symBinAddr: 0x100009E70, symSize: 0x40 }
  - { offsetInCU: 0x1CA96, offset: 0x1CA96, size: 0x8, addend: 0x0, symName: __ZNSt3__119__copy_trivial_implB7v160006IN2sf6VertexES2_EENS_4pairIPT_PT0_EES5_S5_S7_, symObjAddr: 0x6CE0, symBinAddr: 0x100009EB0, symSize: 0x90 }
  - { offsetInCU: 0x1CAFE, offset: 0x1CAFE, size: 0x8, addend: 0x0, symName: __ZNSt3__19make_pairB7v160006IRPN2sf6VertexES3_EENS_4pairINS_18__unwrap_ref_decayIT_E4typeENS6_IT0_E4typeEEEOS7_OSA_, symObjAddr: 0x6D70, symBinAddr: 0x100009F40, symSize: 0x30 }
  - { offsetInCU: 0x1CBA0, offset: 0x1CBA0, size: 0x8, addend: 0x0, symName: __ZNSt3__18distanceB7v160006IPN2sf7Vector2IfEEEENS_15iterator_traitsIT_E15difference_typeES6_S6_, symObjAddr: 0x7180, symBinAddr: 0x10000A350, symSize: 0x30 }
  - { offsetInCU: 0x1CBE3, offset: 0x1CBE3, size: 0x8, addend: 0x0, symName: __ZNSt3__14copyB7v160006IPN2sf7Vector2IfEES4_EET0_T_S6_S5_, symObjAddr: 0x7200, symBinAddr: 0x10000A3D0, symSize: 0x40 }
  - { offsetInCU: 0x1CC3D, offset: 0x1CC3D, size: 0x8, addend: 0x0, symName: __ZNSt3__110__distanceB7v160006IPN2sf7Vector2IfEEEENS_15iterator_traitsIT_E15difference_typeES6_S6_NS_26random_access_iterator_tagE, symObjAddr: 0x7450, symBinAddr: 0x10000A620, symSize: 0x20 }
  - { offsetInCU: 0x1CC8B, offset: 0x1CC8B, size: 0x8, addend: 0x0, symName: __ZNSt3__19__advanceB7v160006IPN2sf7Vector2IfEEEEvRT_NS_15iterator_traitsIS5_E15difference_typeENS_26random_access_iterator_tagE, symObjAddr: 0x7470, symBinAddr: 0x10000A640, symSize: 0x20 }
  - { offsetInCU: 0x1CCD5, offset: 0x1CCD5, size: 0x8, addend: 0x0, symName: __ZNSt3__16__copyB7v160006INS_17_ClassicAlgPolicyEPN2sf7Vector2IfEES5_S5_EENS_4pairIT0_T2_EES7_T1_S8_, symObjAddr: 0x7490, symBinAddr: 0x10000A660, symSize: 0x40 }
  - { offsetInCU: 0x1CD41, offset: 0x1CD41, size: 0x8, addend: 0x0, symName: __ZNSt3__123__dispatch_copy_or_moveB7v160006INS_17_ClassicAlgPolicyENS_11__copy_loopIS1_EENS_14__copy_trivialEPN2sf7Vector2IfEES8_S8_EENS_4pairIT2_T4_EESA_T3_SB_, symObjAddr: 0x74D0, symBinAddr: 0x10000A6A0, symSize: 0x40 }
  - { offsetInCU: 0x1CDBF, offset: 0x1CDBF, size: 0x8, addend: 0x0, symName: __ZNSt3__121__unwrap_and_dispatchB7v160006INS_10__overloadINS_11__copy_loopINS_17_ClassicAlgPolicyEEENS_14__copy_trivialEEEPN2sf7Vector2IfEESA_SA_Li0EEENS_4pairIT0_T2_EESC_T1_SD_, symObjAddr: 0x7510, symBinAddr: 0x10000A6E0, symSize: 0xB0 }
  - { offsetInCU: 0x1CE4E, offset: 0x1CE4E, size: 0x8, addend: 0x0, symName: __ZNSt3__114__unwrap_rangeB7v160006IPN2sf7Vector2IfEES4_EENS_4pairIT0_S6_EET_S8_, symObjAddr: 0x75C0, symBinAddr: 0x10000A790, symSize: 0x50 }
  - { offsetInCU: 0x1CF9D, offset: 0x1CF9D, size: 0x8, addend: 0x0, symName: __ZNSt3__113__unwrap_iterB7v160006IPN2sf7Vector2IfEENS_18__unwrap_iter_implIS4_Lb1EEELi0EEEDTclsrT0_8__unwrapclsr3stdE7declvalIT_EEEES8_, symObjAddr: 0x7650, symBinAddr: 0x10000A820, symSize: 0x20 }
  - { offsetInCU: 0x1CFE1, offset: 0x1CFE1, size: 0x8, addend: 0x0, symName: __ZNSt3__19make_pairB7v160006IPN2sf7Vector2IfEES4_EENS_4pairINS_18__unwrap_ref_decayIT_E4typeENS6_IT0_E4typeEEEOS7_OSA_, symObjAddr: 0x7670, symBinAddr: 0x10000A840, symSize: 0x30 }
  - { offsetInCU: 0x1D030, offset: 0x1D030, size: 0x8, addend: 0x0, symName: __ZNSt3__114__rewrap_rangeB7v160006IPN2sf7Vector2IfEES4_EET_S5_T0_, symObjAddr: 0x76A0, symBinAddr: 0x10000A870, symSize: 0x30 }
  - { offsetInCU: 0x1D07C, offset: 0x1D07C, size: 0x8, addend: 0x0, symName: __ZNSt3__113__rewrap_iterB7v160006IPN2sf7Vector2IfEES4_NS_18__unwrap_iter_implIS4_Lb1EEEEET_S7_T0_, symObjAddr: 0x76D0, symBinAddr: 0x10000A8A0, symSize: 0x40 }
  - { offsetInCU: 0x1D0D1, offset: 0x1D0D1, size: 0x8, addend: 0x0, symName: __ZNSt3__119__copy_trivial_implB7v160006IN2sf7Vector2IfEES3_EENS_4pairIPT_PT0_EES6_S6_S8_, symObjAddr: 0x7710, symBinAddr: 0x10000A8E0, symSize: 0x70 }
  - { offsetInCU: 0x1D139, offset: 0x1D139, size: 0x8, addend: 0x0, symName: __ZNSt3__19make_pairB7v160006IRPN2sf7Vector2IfEES4_EENS_4pairINS_18__unwrap_ref_decayIT_E4typeENS7_IT0_E4typeEEEOS8_OSB_, symObjAddr: 0x7780, symBinAddr: 0x10000A950, symSize: 0x30 }
  - { offsetInCU: 0x1D1DB, offset: 0x1D1DB, size: 0x8, addend: 0x0, symName: __ZNSt3__130__uninitialized_allocator_copyB7v160006INS_9allocatorIN2sf7Vector2IfEEEEPS4_S6_S6_EET2_RT_T0_T1_S7_, symObjAddr: 0x78E0, symBinAddr: 0x10000AAB0, symSize: 0x100 }
  - { offsetInCU: 0x1D279, offset: 0x1D279, size: 0x8, addend: 0x0, symName: __ZNSt3__122__make_exception_guardB7v160006INS_29_AllocatorDestroyRangeReverseINS_9allocatorIN2sf7Vector2IfEEEEPS5_EEEENS_28__exception_guard_exceptionsIT_EESA_, symObjAddr: 0x79E0, symBinAddr: 0x10000ABB0, symSize: 0x60 }
  - { offsetInCU: 0x1D2AE, offset: 0x1D2AE, size: 0x8, addend: 0x0, symName: __ZNSt3__119__allocator_destroyB7v160006INS_9allocatorIN2sf7Vector2IfEEEENS_16reverse_iteratorIPS4_EES8_EEvRT_T0_T1_, symObjAddr: 0x7C60, symBinAddr: 0x10000AE30, symSize: 0x70 }
  - { offsetInCU: 0x1D311, offset: 0x1D311, size: 0x8, addend: 0x0, symName: __ZNSt3__112__to_addressB7v160006INS_16reverse_iteratorIPN2sf7Vector2IfEEEEvEENS_5decayIDTclsr19__to_address_helperIT_EE6__callclsr3stdE7declvalIRKS8_EEEEE4typeESA_, symObjAddr: 0x7CD0, symBinAddr: 0x10000AEA0, symSize: 0x20 }
  - { offsetInCU: 0x1D370, offset: 0x1D370, size: 0x8, addend: 0x0, symName: __ZNSt3__118__debug_db_erase_cB7v160006INS_6vectorIN2sf7Vector2IfEENS_9allocatorIS4_EEEEEEvPT_, symObjAddr: 0x8110, symBinAddr: 0x10000B2E0, symSize: 0x10 }
  - { offsetInCU: 0x1D3A1, offset: 0x1D3A1, size: 0x8, addend: 0x0, symName: __ZNSt3__1neB7v160006IPKN2sf7Vector2IfEEEEbRKNS_11__wrap_iterIT_EESA_, symObjAddr: 0x8380, symBinAddr: 0x10000B550, symSize: 0x30 }
  - { offsetInCU: 0x1D3E4, offset: 0x1D3E4, size: 0x8, addend: 0x0, symName: __ZNSt3__13maxB7v160006IfEERKT_S3_S3_, symObjAddr: 0x8480, symBinAddr: 0x10000B650, symSize: 0x30 }
  - { offsetInCU: 0x1D427, offset: 0x1D427, size: 0x8, addend: 0x0, symName: __ZNSt3__13minB7v160006IfEERKT_S3_S3_, symObjAddr: 0x84B0, symBinAddr: 0x10000B680, symSize: 0x30 }
  - { offsetInCU: 0x1D46A, offset: 0x1D46A, size: 0x8, addend: 0x0, symName: __ZNSt3__13maxB7v160006IfNS_6__lessIffEEEERKT_S5_S5_T0_, symObjAddr: 0x84E0, symBinAddr: 0x10000B6B0, symSize: 0x50 }
  - { offsetInCU: 0x1D4FF, offset: 0x1D4FF, size: 0x8, addend: 0x0, symName: __ZNSt3__13minB7v160006IfNS_6__lessIffEEEERKT_S5_S5_T0_, symObjAddr: 0x8560, symBinAddr: 0x10000B730, symSize: 0x50 }
  - { offsetInCU: 0x1D559, offset: 0x1D559, size: 0x8, addend: 0x0, symName: __ZNSt3__122__make_exception_guardB7v160006INS_6vectorI5PointNS_9allocatorIS2_EEE16__destroy_vectorEEENS_28__exception_guard_exceptionsIT_EES8_, symObjAddr: 0x8720, symBinAddr: 0x10000B8F0, symSize: 0x40 }
  - { offsetInCU: 0x1D58E, offset: 0x1D58E, size: 0x8, addend: 0x0, symName: __ZNSt3__119__debug_db_insert_cB7v160006INS_6vectorI5PointNS_9allocatorIS2_EEEEEEvPT_, symObjAddr: 0x8790, symBinAddr: 0x10000B960, symSize: 0x10 }
  - { offsetInCU: 0x1D5BF, offset: 0x1D5BF, size: 0x8, addend: 0x0, symName: __ZNSt3__119__allocate_at_leastB7v160006INS_9allocatorI5PointEEEENS_19__allocation_resultINS_16allocator_traitsIT_E7pointerEEERS6_m, symObjAddr: 0x8AA0, symBinAddr: 0x10000BC70, symSize: 0x40 }
  - { offsetInCU: 0x1D602, offset: 0x1D602, size: 0x8, addend: 0x0, symName: __ZNSt3__112__to_addressB7v160006I5PointEEPT_S3_, symObjAddr: 0x8D40, symBinAddr: 0x10000BF10, symSize: 0x10 }
  - { offsetInCU: 0x1D637, offset: 0x1D637, size: 0x8, addend: 0x0, symName: __ZNSt3__130__uninitialized_allocator_copyB7v160006INS_9allocatorI5PointEEPS2_S4_S4_EET2_RT_T0_T1_S5_, symObjAddr: 0x8DD0, symBinAddr: 0x10000BFA0, symSize: 0x100 }
  - { offsetInCU: 0x1D6D5, offset: 0x1D6D5, size: 0x8, addend: 0x0, symName: __ZNSt3__122__make_exception_guardB7v160006INS_29_AllocatorDestroyRangeReverseINS_9allocatorI5PointEEPS3_EEEENS_28__exception_guard_exceptionsIT_EES8_, symObjAddr: 0x8F30, symBinAddr: 0x10000C100, symSize: 0x60 }
  - { offsetInCU: 0x1D70A, offset: 0x1D70A, size: 0x8, addend: 0x0, symName: __ZNSt3__119__allocator_destroyB7v160006INS_9allocatorI5PointEENS_16reverse_iteratorIPS2_EES6_EEvRT_T0_T1_, symObjAddr: 0x91C0, symBinAddr: 0x10000C390, symSize: 0x70 }
  - { offsetInCU: 0x1D76D, offset: 0x1D76D, size: 0x8, addend: 0x0, symName: __ZNSt3__1neB7v160006IP5PointS2_EEbRKNS_16reverse_iteratorIT_EERKNS3_IT0_EE, symObjAddr: 0x9260, symBinAddr: 0x10000C430, symSize: 0x40 }
  - { offsetInCU: 0x1D7B9, offset: 0x1D7B9, size: 0x8, addend: 0x0, symName: __ZNSt3__112__to_addressB7v160006INS_16reverse_iteratorIP5PointEEvEENS_5decayIDTclsr19__to_address_helperIT_EE6__callclsr3stdE7declvalIRKS6_EEEEE4typeES8_, symObjAddr: 0x92D0, symBinAddr: 0x10000C4A0, symSize: 0x20 }
  - { offsetInCU: 0x1D818, offset: 0x1D818, size: 0x8, addend: 0x0, symName: __ZNSt3__118__debug_db_erase_cB7v160006INS_6vectorI5PointNS_9allocatorIS2_EEEEEEvPT_, symObjAddr: 0x95C0, symBinAddr: 0x10000C790, symSize: 0x10 }
  - { offsetInCU: 0x1D849, offset: 0x1D849, size: 0x8, addend: 0x0, symName: __ZNSt3__1eqB7v160006IPKN2sf7Vector2IfEEEEbRKNS_11__wrap_iterIT_EESA_, symObjAddr: 0x9760, symBinAddr: 0x10000C930, symSize: 0x40 }
  - { offsetInCU: 0x1D88C, offset: 0x1D88C, size: 0x8, addend: 0x0, symName: __ZNSt3__119__debug_db_insert_cB7v160006INS_12basic_stringIcNS_11char_traitsIcEENS_9allocatorIcEEEEEEvPT_, symObjAddr: 0x99B0, symBinAddr: 0x10000CB80, symSize: 0x10 }
  - { offsetInCU: 0x1D8BD, offset: 0x1D8BD, size: 0x8, addend: 0x0, symName: __ZNSt3__118__constexpr_strlenB7v160006EPKc, symObjAddr: 0x9A50, symBinAddr: 0x10000CC20, symSize: 0x20 }
  - { offsetInCU: 0x1D90D, offset: 0x1D90D, size: 0x8, addend: 0x0, symName: __ZNSt3__118generate_canonicalB7v160006IdLm53ENS_23mersenne_twister_engineIjLm32ELm624ELm397ELm31ELj2567483615ELm11ELj4294967295ELm7ELj2636928640ELm15ELj4022730752ELm18ELj1812433253EEEEET_RT1_, symObjAddr: 0x9CA0, symBinAddr: 0x10000CE70, symSize: 0x100 }
  - { offsetInCU: 0x1D9D4, offset: 0x1D9D4, size: 0x8, addend: 0x0, symName: __ZNSt3__142__uninitialized_allocator_move_if_noexceptB7v160006INS_9allocatorI5PointEENS_16reverse_iteratorIPS2_EES6_S6_EET2_RT_T0_T1_S7_, symObjAddr: 0xA6B0, symBinAddr: 0x10000D880, symSize: 0x170 }
  - { offsetInCU: 0x1DA73, offset: 0x1DA73, size: 0x8, addend: 0x0, symName: __ZNSt3__14swapB7v160006IP5PointEENS_9enable_ifIXaasr21is_move_constructibleIT_EE5valuesr18is_move_assignableIS4_EE5valueEvE4typeERS4_S7_, symObjAddr: 0xA820, symBinAddr: 0x10000D9F0, symSize: 0x40 }
  - { offsetInCU: 0x1DAC4, offset: 0x1DAC4, size: 0x8, addend: 0x0, symName: __ZNSt3__125__debug_db_invalidate_allB7v160006INS_6vectorI5PointNS_9allocatorIS2_EEEEEEvPT_, symObjAddr: 0xA860, symBinAddr: 0x10000DA30, symSize: 0x10 }
  - { offsetInCU: 0x1DAF5, offset: 0x1DAF5, size: 0x8, addend: 0x0, symName: __ZNSt3__122__make_exception_guardB7v160006INS_29_AllocatorDestroyRangeReverseINS_9allocatorI5PointEENS_16reverse_iteratorIPS3_EEEEEENS_28__exception_guard_exceptionsIT_EESA_, symObjAddr: 0xA870, symBinAddr: 0x10000DA40, symSize: 0x60 }
  - { offsetInCU: 0x1DB2A, offset: 0x1DB2A, size: 0x8, addend: 0x0, symName: __ZNSt3__119__allocator_destroyB7v160006INS_9allocatorI5PointEENS_16reverse_iteratorINS4_IPS2_EEEES7_EEvRT_T0_T1_, symObjAddr: 0xAB90, symBinAddr: 0x10000DD60, symSize: 0x70 }
  - { offsetInCU: 0x1DB8D, offset: 0x1DB8D, size: 0x8, addend: 0x0, symName: __ZNSt3__1neB7v160006INS_16reverse_iteratorIP5PointEES4_EEbRKNS1_IT_EERKNS1_IT0_EE, symObjAddr: 0xAC30, symBinAddr: 0x10000DE00, symSize: 0x50 }
  - { offsetInCU: 0x1DBD9, offset: 0x1DBD9, size: 0x8, addend: 0x0, symName: __ZNSt3__112__to_addressB7v160006INS_16reverse_iteratorINS1_IP5PointEEEEvEENS_5decayIDTclsr19__to_address_helperIT_EE6__callclsr3stdE7declvalIRKS7_EEEEE4typeES9_, symObjAddr: 0xAC80, symBinAddr: 0x10000DE50, symSize: 0x20 }
  - { offsetInCU: 0x1DC38, offset: 0x1DC38, size: 0x8, addend: 0x0, symName: __ZNSt3__113__countl_zeroB7v160006IjEEiT_, symObjAddr: 0xB240, symBinAddr: 0x10000E410, symSize: 0x40 }
  - { offsetInCU: 0x1DC6D, offset: 0x1DC6D, size: 0x8, addend: 0x0, symName: __ZNSt3__112__libcpp_clzB7v160006Ej, symObjAddr: 0xB490, symBinAddr: 0x10000E660, symSize: 0x20 }
  - { offsetInCU: 0x1DC99, offset: 0x1DC99, size: 0x8, addend: 0x0, symName: __ZNSt3__116__pad_and_outputB7v160006IcNS_11char_traitsIcEEEENS_19ostreambuf_iteratorIT_T0_EES6_PKS4_S8_S8_RNS_8ios_baseES4_, symObjAddr: 0xB6D0, symBinAddr: 0x10000E8A0, symSize: 0x220 }
  - { offsetInCU: 0x1DD69, offset: 0x1DD69, size: 0x8, addend: 0x0, symName: __ZNSt3__112__to_addressB7v160006IcEEPT_S2_, symObjAddr: 0xBB30, symBinAddr: 0x10000ED00, symSize: 0x10 }
  - { offsetInCU: 0x1DDD1, offset: 0x1DDD1, size: 0x8, addend: 0x0, symName: __ZNSt3__19use_facetB7v160006INS_5ctypeIcEEEERKT_RKNS_6localeE, symObjAddr: 0xBDC0, symBinAddr: 0x10000EF90, symSize: 0x30 }
  - { offsetInCU: 0x1E852, offset: 0x1E852, size: 0x8, addend: 0x0, symName: __ZSt28__throw_bad_array_new_lengthB7v160006v, symObjAddr: 0x3330, symBinAddr: 0x100006500, symSize: 0x40 }
  - { offsetInCU: 0x202FB, offset: 0x202FB, size: 0x8, addend: 0x0, symName: __ZNSt3__16vectorIN2sf7Vector2IfEENS_9allocatorIS3_EEE26__swap_out_circular_bufferERNS_14__split_bufferIS3_RS5_EE, symObjAddr: 0x4F50, symBinAddr: 0x100008120, symSize: 0x130 }
  - { offsetInCU: 0x2057D, offset: 0x2057D, size: 0x8, addend: 0x0, symName: __Z3powB7v160006IfiENSt3__19enable_ifIXaasr3std13is_arithmeticIT_EE5valuesr3std13is_arithmeticIT0_EE5valueENS0_9__promoteIS2_S3_vEEE4type4typeES2_S3_, symObjAddr: 0x97C0, symBinAddr: 0x10000C990, symSize: 0x30 }
  - { offsetInCU: 0x20609, offset: 0x20609, size: 0x8, addend: 0x0, symName: __ZNSt3__16vectorI5PointNS_9allocatorIS1_EEE26__swap_out_circular_bufferERNS_14__split_bufferIS1_RS3_EE, symObjAddr: 0xA360, symBinAddr: 0x10000D530, symSize: 0x130 }
  - { offsetInCU: 0x206CF, offset: 0x206CF, size: 0x8, addend: 0x0, symName: __ZNSt3__124uniform_int_distributionIiEclINS_23mersenne_twister_engineIjLm32ELm624ELm397ELm31ELj2567483615ELm11ELj4294967295ELm7ELj2636928640ELm15ELj4022730752ELm18ELj1812433253EEEEEiRT_RKNS1_10param_typeE, symObjAddr: 0xB070, symBinAddr: 0x10000E240, symSize: 0x150 }
  - { offsetInCU: 0x22AB2, offset: 0x22AB2, size: 0x8, addend: 0x0, symName: __Z14genRandomFloatff, symObjAddr: 0x0, symBinAddr: 0x1000031D0, symSize: 0xF0 }
  - { offsetInCU: 0x22B33, offset: 0x22B33, size: 0x8, addend: 0x0, symName: __ZNSt3__113random_deviceC1Ev, symObjAddr: 0xF0, symBinAddr: 0x1000032C0, symSize: 0x70 }
  - { offsetInCU: 0x22B5D, offset: 0x22B5D, size: 0x8, addend: 0x0, symName: __ZNSt3__123mersenne_twister_engineIjLm32ELm624ELm397ELm31ELj2567483615ELm11ELj4294967295ELm7ELj2636928640ELm15ELj4022730752ELm18ELj1812433253EEC1B7v160006Ej, symObjAddr: 0x160, symBinAddr: 0x100003330, symSize: 0x30 }
  - { offsetInCU: 0x22BB9, offset: 0x22BB9, size: 0x8, addend: 0x0, symName: __ZNSt3__125uniform_real_distributionIdEC1Edd, symObjAddr: 0x190, symBinAddr: 0x100003360, symSize: 0x30 }
  - { offsetInCU: 0x22BFF, offset: 0x22BFF, size: 0x8, addend: 0x0, symName: __ZNSt3__125uniform_real_distributionIdEclB7v160006INS_23mersenne_twister_engineIjLm32ELm624ELm397ELm31ELj2567483615ELm11ELj4294967295ELm7ELj2636928640ELm15ELj4022730752ELm18ELj1812433253EEEEEdRT_, symObjAddr: 0x1C0, symBinAddr: 0x100003390, symSize: 0x30 }
  - { offsetInCU: 0x22C3C, offset: 0x22C3C, size: 0x8, addend: 0x0, symName: __ZN2sf7Vector2IfEC1Eff, symObjAddr: 0x1F0, symBinAddr: 0x1000033C0, symSize: 0x30 }
  - { offsetInCU: 0x22C83, offset: 0x22C83, size: 0x8, addend: 0x0, symName: __Z12genRandomIntii, symObjAddr: 0x220, symBinAddr: 0x1000033F0, symSize: 0xD0 }
  - { offsetInCU: 0x22CEA, offset: 0x22CEA, size: 0x8, addend: 0x0, symName: __ZNSt3__124uniform_int_distributionIiEC1Eii, symObjAddr: 0x2F0, symBinAddr: 0x1000034C0, symSize: 0x30 }
  - { offsetInCU: 0x22D30, offset: 0x22D30, size: 0x8, addend: 0x0, symName: __ZNSt3__124uniform_int_distributionIiEclINS_23mersenne_twister_engineIjLm32ELm624ELm397ELm31ELj2567483615ELm11ELj4294967295ELm7ELj2636928640ELm15ELj4022730752ELm18ELj1812433253EEEEEiRT_, symObjAddr: 0x320, symBinAddr: 0x1000034F0, symSize: 0x30 }
  - { offsetInCU: 0x22D6D, offset: 0x22D6D, size: 0x8, addend: 0x0, symName: _main, symObjAddr: 0x350, symBinAddr: 0x100003520, symSize: 0x11B0 }
  - { offsetInCU: 0x22F99, offset: 0x22F99, size: 0x8, addend: 0x0, symName: __ZNSt3__112basic_stringIcNS_11char_traitsIcEENS_9allocatorIcEEEC1B7v160006IDnEEPKc, symObjAddr: 0x1500, symBinAddr: 0x1000046D0, symSize: 0x30 }
  - { offsetInCU: 0x22FD7, offset: 0x22FD7, size: 0x8, addend: 0x0, symName: __ZNSt3__113basic_ostreamIcNS_11char_traitsIcEEElsB7v160006EPFRS3_S4_E, symObjAddr: 0x1570, symBinAddr: 0x100004740, symSize: 0x20 }
  - { offsetInCU: 0x2300B, offset: 0x2300B, size: 0x8, addend: 0x0, symName: __ZN2sf6StringD1Ev, symObjAddr: 0x15E0, symBinAddr: 0x1000047B0, symSize: 0x20 }
  - { offsetInCU: 0x231BD, offset: 0x231BD, size: 0x8, addend: 0x0, symName: __ZN9RectangleC1EN2sf7Vector2IfEES2_, symObjAddr: 0x1600, symBinAddr: 0x1000047D0, symSize: 0x30 }
  - { offsetInCU: 0x23209, offset: 0x23209, size: 0x8, addend: 0x0, symName: __ZN9RectangleC1ERKS_, symObjAddr: 0x1630, symBinAddr: 0x100004800, symSize: 0x30 }
  - { offsetInCU: 0x23366, offset: 0x23366, size: 0x8, addend: 0x0, symName: __ZN8QuadTreeC1E9Rectanglei, symObjAddr: 0x1660, symBinAddr: 0x100004830, symSize: 0x30 }
  - { offsetInCU: 0x233AD, offset: 0x233AD, size: 0x8, addend: 0x0, symName: __ZN9RectangleD1Ev, symObjAddr: 0x1690, symBinAddr: 0x100004860, symSize: 0x20 }
  - { offsetInCU: 0x233D9, offset: 0x233D9, size: 0x8, addend: 0x0, symName: __ZNSt3__16vectorI5PointNS_9allocatorIS1_EEEC1B7v160006Ev, symObjAddr: 0x16B0, symBinAddr: 0x100004880, symSize: 0x20 }
  - { offsetInCU: 0x23403, offset: 0x23403, size: 0x8, addend: 0x0, symName: __ZNSt3__16vectorI5PointNS_9allocatorIS1_EEE9push_backB7v160006EOS1_, symObjAddr: 0x16D0, symBinAddr: 0x1000048A0, symSize: 0x60 }
  - { offsetInCU: 0x2343A, offset: 0x2343A, size: 0x8, addend: 0x0, symName: __ZN5PointC1EN2sf7Vector2IfEE, symObjAddr: 0x1730, symBinAddr: 0x100004900, symSize: 0x30 }
  - { offsetInCU: 0x23472, offset: 0x23472, size: 0x8, addend: 0x0, symName: __ZN5PointD1Ev, symObjAddr: 0x1760, symBinAddr: 0x100004930, symSize: 0x20 }
  - { offsetInCU: 0x2349E, offset: 0x2349E, size: 0x8, addend: 0x0, symName: __ZN8QuadTree6insertEN2sf7Vector2IfEE, symObjAddr: 0x1780, symBinAddr: 0x100004950, symSize: 0x1C0 }
  - { offsetInCU: 0x234D2, offset: 0x234D2, size: 0x8, addend: 0x0, symName: __ZN2sf15ContextSettingsC1Ejjjjjjb, symObjAddr: 0x1940, symBinAddr: 0x100004B10, symSize: 0x60 }
  - { offsetInCU: 0x2356A, offset: 0x2356A, size: 0x8, addend: 0x0, symName: __ZN8QuadTreeaSERKS_, symObjAddr: 0x19A0, symBinAddr: 0x100004B70, symSize: 0x80 }
  - { offsetInCU: 0x2359B, offset: 0x2359B, size: 0x8, addend: 0x0, symName: __ZN8QuadTreeD1Ev, symObjAddr: 0x1A20, symBinAddr: 0x100004BF0, symSize: 0x20 }
  - { offsetInCU: 0x235C5, offset: 0x235C5, size: 0x8, addend: 0x0, symName: __ZNKSt3__16vectorI5PointNS_9allocatorIS1_EEE4sizeB7v160006Ev, symObjAddr: 0x1A40, symBinAddr: 0x100004C10, symSize: 0x30 }
  - { offsetInCU: 0x235EB, offset: 0x235EB, size: 0x8, addend: 0x0, symName: __ZNSt3__16vectorI5PointNS_9allocatorIS1_EEEixB7v160006Em, symObjAddr: 0x1A70, symBinAddr: 0x100004C40, symSize: 0x20 }
  - { offsetInCU: 0x23622, offset: 0x23622, size: 0x8, addend: 0x0, symName: __ZN8QuadTree4drawERN2sf12RenderWindowE, symObjAddr: 0x1A90, symBinAddr: 0x100004C60, symSize: 0xA0 }
  - { offsetInCU: 0x23656, offset: 0x23656, size: 0x8, addend: 0x0, symName: __ZN6CircleC1Efff, symObjAddr: 0x1B30, symBinAddr: 0x100004D00, symSize: 0x40 }
  - { offsetInCU: 0x236AA, offset: 0x236AA, size: 0x8, addend: 0x0, symName: __ZNK8QuadTree5queryERK6CircleRNSt3__16vectorI5PointNS3_9allocatorIS5_EEEE, symObjAddr: 0x1B70, symBinAddr: 0x100004D40, symSize: 0x260 }
  - { offsetInCU: 0x2372D, offset: 0x2372D, size: 0x8, addend: 0x0, symName: __ZN5Point10intersectsES_, symObjAddr: 0x1DD0, symBinAddr: 0x100004FA0, symSize: 0xA0 }
  - { offsetInCU: 0x2377E, offset: 0x2377E, size: 0x8, addend: 0x0, symName: __ZN5PointC1ERKS_, symObjAddr: 0x1E70, symBinAddr: 0x100005040, symSize: 0x30 }
  - { offsetInCU: 0x237B3, offset: 0x237B3, size: 0x8, addend: 0x0, symName: __ZN5Point6updateEv, symObjAddr: 0x1EA0, symBinAddr: 0x100005070, symSize: 0xC0 }
  - { offsetInCU: 0x237F5, offset: 0x237F5, size: 0x8, addend: 0x0, symName: __ZN5Point4drawERN2sf12RenderWindowE, symObjAddr: 0x1F60, symBinAddr: 0x100005130, symSize: 0x80 }
  - { offsetInCU: 0x23829, offset: 0x23829, size: 0x8, addend: 0x0, symName: __ZNSt3__16vectorI5PointNS_9allocatorIS1_EEED1B7v160006Ev, symObjAddr: 0x1FE0, symBinAddr: 0x1000051B0, symSize: 0x20 }
  - { offsetInCU: 0x23853, offset: 0x23853, size: 0x8, addend: 0x0, symName: __ZN2sf4TextD1Ev, symObjAddr: 0x2000, symBinAddr: 0x1000051D0, symSize: 0x20 }
  - { offsetInCU: 0x2387F, offset: 0x2387F, size: 0x8, addend: 0x0, symName: __ZN2sf6StringD2Ev, symObjAddr: 0x2020, symBinAddr: 0x1000051F0, symSize: 0x20 }
  - { offsetInCU: 0x238AB, offset: 0x238AB, size: 0x8, addend: 0x0, symName: __ZNSt3__112basic_stringIjNS_11char_traitsIjEENS_9allocatorIjEEED1Ev, symObjAddr: 0x2040, symBinAddr: 0x100005210, symSize: 0x20 }
  - { offsetInCU: 0x238D7, offset: 0x238D7, size: 0x8, addend: 0x0, symName: __ZNSt3__112basic_stringIjNS_11char_traitsIjEENS_9allocatorIjEEED2Ev, symObjAddr: 0x2060, symBinAddr: 0x100005230, symSize: 0x80 }
  - { offsetInCU: 0x23903, offset: 0x23903, size: 0x8, addend: 0x0, symName: __ZNKSt3__112basic_stringIjNS_11char_traitsIjEENS_9allocatorIjEEE9__is_longB7v160006Ev, symObjAddr: 0x2100, symBinAddr: 0x1000052D0, symSize: 0x30 }
  - { offsetInCU: 0x23929, offset: 0x23929, size: 0x8, addend: 0x0, symName: __ZNSt3__116allocator_traitsINS_9allocatorIjEEE10deallocateB7v160006ERS2_Pjm, symObjAddr: 0x2130, symBinAddr: 0x100005300, symSize: 0x30 }
  - { offsetInCU: 0x2396B, offset: 0x2396B, size: 0x8, addend: 0x0, symName: __ZNSt3__112basic_stringIjNS_11char_traitsIjEENS_9allocatorIjEEE7__allocB7v160006Ev, symObjAddr: 0x2160, symBinAddr: 0x100005330, symSize: 0x20 }
  - { offsetInCU: 0x23991, offset: 0x23991, size: 0x8, addend: 0x0, symName: __ZNSt3__112basic_stringIjNS_11char_traitsIjEENS_9allocatorIjEEE18__get_long_pointerB7v160006Ev, symObjAddr: 0x2180, symBinAddr: 0x100005350, symSize: 0x20 }
  - { offsetInCU: 0x239B7, offset: 0x239B7, size: 0x8, addend: 0x0, symName: __ZNKSt3__112basic_stringIjNS_11char_traitsIjEENS_9allocatorIjEEE14__get_long_capB7v160006Ev, symObjAddr: 0x21A0, symBinAddr: 0x100005370, symSize: 0x30 }
  - { offsetInCU: 0x239DD, offset: 0x239DD, size: 0x8, addend: 0x0, symName: __ZNKSt3__117__compressed_pairINS_12basic_stringIjNS_11char_traitsIjEENS_9allocatorIjEEE5__repES5_E5firstB7v160006Ev, symObjAddr: 0x21D0, symBinAddr: 0x1000053A0, symSize: 0x20 }
  - { offsetInCU: 0x23A03, offset: 0x23A03, size: 0x8, addend: 0x0, symName: __ZNKSt3__122__compressed_pair_elemINS_12basic_stringIjNS_11char_traitsIjEENS_9allocatorIjEEE5__repELi0ELb0EE5__getB7v160006Ev, symObjAddr: 0x21F0, symBinAddr: 0x1000053C0, symSize: 0x10 }
  - { offsetInCU: 0x23A29, offset: 0x23A29, size: 0x8, addend: 0x0, symName: __ZNSt3__19allocatorIjE10deallocateB7v160006EPjm, symObjAddr: 0x2200, symBinAddr: 0x1000053D0, symSize: 0x40 }
  - { offsetInCU: 0x23A6B, offset: 0x23A6B, size: 0x8, addend: 0x0, symName: __ZNSt3__117__compressed_pairINS_12basic_stringIjNS_11char_traitsIjEENS_9allocatorIjEEE5__repES5_E6secondB7v160006Ev, symObjAddr: 0x2360, symBinAddr: 0x100005530, symSize: 0x20 }
  - { offsetInCU: 0x23A91, offset: 0x23A91, size: 0x8, addend: 0x0, symName: __ZNSt3__122__compressed_pair_elemINS_9allocatorIjEELi1ELb1EE5__getB7v160006Ev, symObjAddr: 0x2380, symBinAddr: 0x100005550, symSize: 0x10 }
  - { offsetInCU: 0x23AB7, offset: 0x23AB7, size: 0x8, addend: 0x0, symName: __ZNSt3__117__compressed_pairINS_12basic_stringIjNS_11char_traitsIjEENS_9allocatorIjEEE5__repES5_E5firstB7v160006Ev, symObjAddr: 0x2390, symBinAddr: 0x100005560, symSize: 0x20 }
  - { offsetInCU: 0x23ADD, offset: 0x23ADD, size: 0x8, addend: 0x0, symName: __ZNSt3__122__compressed_pair_elemINS_12basic_stringIjNS_11char_traitsIjEENS_9allocatorIjEEE5__repELi0ELb0EE5__getB7v160006Ev, symObjAddr: 0x23B0, symBinAddr: 0x100005580, symSize: 0x10 }
  - { offsetInCU: 0x23B03, offset: 0x23B03, size: 0x8, addend: 0x0, symName: __ZN9RectangleC2EN2sf7Vector2IfEES2_, symObjAddr: 0x23C0, symBinAddr: 0x100005590, symSize: 0x210 }
  - { offsetInCU: 0x23B49, offset: 0x23B49, size: 0x8, addend: 0x0, symName: __ZN2sf14RectangleShapeD1Ev, symObjAddr: 0x25D0, symBinAddr: 0x1000057A0, symSize: 0x20 }
  - { offsetInCU: 0x23B75, offset: 0x23B75, size: 0x8, addend: 0x0, symName: __ZN2sf11CircleShapeD1Ev, symObjAddr: 0x25F0, symBinAddr: 0x1000057C0, symSize: 0x20 }
  - { offsetInCU: 0x23BA1, offset: 0x23BA1, size: 0x8, addend: 0x0, symName: __ZN2sf14RectangleShapeD2Ev, symObjAddr: 0x2610, symBinAddr: 0x1000057E0, symSize: 0x20 }
  - { offsetInCU: 0x23BCD, offset: 0x23BCD, size: 0x8, addend: 0x0, symName: __ZThn8_N2sf14RectangleShapeD1Ev, symObjAddr: 0x2630, symBinAddr: 0x100005800, symSize: 0x20 }
  - { offsetInCU: 0x23BE3, offset: 0x23BE3, size: 0x8, addend: 0x0, symName: __ZN2sf11CircleShapeD2Ev, symObjAddr: 0x2650, symBinAddr: 0x100005820, symSize: 0x20 }
  - { offsetInCU: 0x23C0F, offset: 0x23C0F, size: 0x8, addend: 0x0, symName: __ZThn8_N2sf11CircleShapeD1Ev, symObjAddr: 0x2670, symBinAddr: 0x100005840, symSize: 0x20 }
  - { offsetInCU: 0x23C25, offset: 0x23C25, size: 0x8, addend: 0x0, symName: __ZN9RectangleC2ERKS_, symObjAddr: 0x2690, symBinAddr: 0x100005860, symSize: 0x70 }
  - { offsetInCU: 0x23C60, offset: 0x23C60, size: 0x8, addend: 0x0, symName: __ZN2sf11CircleShapeC1ERKS0_, symObjAddr: 0x2700, symBinAddr: 0x1000058D0, symSize: 0x30 }
  - { offsetInCU: 0x23C9B, offset: 0x23C9B, size: 0x8, addend: 0x0, symName: __ZN2sf14RectangleShapeC1ERKS0_, symObjAddr: 0x2730, symBinAddr: 0x100005900, symSize: 0x30 }
  - { offsetInCU: 0x23CD0, offset: 0x23CD0, size: 0x8, addend: 0x0, symName: __ZN2sf11CircleShapeC2ERKS0_, symObjAddr: 0x2760, symBinAddr: 0x100005930, symSize: 0x70 }
  - { offsetInCU: 0x23D0B, offset: 0x23D0B, size: 0x8, addend: 0x0, symName: __ZN2sf5ShapeC2ERKS0_, symObjAddr: 0x27D0, symBinAddr: 0x1000059A0, symSize: 0x150 }
  - { offsetInCU: 0x23D40, offset: 0x23D40, size: 0x8, addend: 0x0, symName: __ZN2sf8DrawableC2ERKS0_, symObjAddr: 0x2920, symBinAddr: 0x100005AF0, symSize: 0x20 }
  - { offsetInCU: 0x23D7B, offset: 0x23D7B, size: 0x8, addend: 0x0, symName: __ZN2sf13TransformableC2ERKS0_, symObjAddr: 0x2940, symBinAddr: 0x100005B10, symSize: 0x40 }
  - { offsetInCU: 0x23DB6, offset: 0x23DB6, size: 0x8, addend: 0x0, symName: __ZN2sf11VertexArrayC1ERKS0_, symObjAddr: 0x2980, symBinAddr: 0x100005B50, symSize: 0x30 }
  - { offsetInCU: 0x23DEB, offset: 0x23DEB, size: 0x8, addend: 0x0, symName: __ZN2sf11VertexArrayD1Ev, symObjAddr: 0x29B0, symBinAddr: 0x100005B80, symSize: 0x20 }
  - { offsetInCU: 0x23E17, offset: 0x23E17, size: 0x8, addend: 0x0, symName: __ZN2sf8DrawableD2Ev, symObjAddr: 0x29D0, symBinAddr: 0x100005BA0, symSize: 0x10 }
  - { offsetInCU: 0x23E41, offset: 0x23E41, size: 0x8, addend: 0x0, symName: __ZN2sf8DrawableD1Ev, symObjAddr: 0x29E0, symBinAddr: 0x100005BB0, symSize: 0x10 }
  - { offsetInCU: 0x23E6B, offset: 0x23E6B, size: 0x8, addend: 0x0, symName: __ZN2sf8DrawableD0Ev, symObjAddr: 0x29F0, symBinAddr: 0x100005BC0, symSize: 0x10 }
  - { offsetInCU: 0x23E95, offset: 0x23E95, size: 0x8, addend: 0x0, symName: __ZN2sf11VertexArrayC2ERKS0_, symObjAddr: 0x2A00, symBinAddr: 0x100005BD0, symSize: 0x80 }
  - { offsetInCU: 0x23ECA, offset: 0x23ECA, size: 0x8, addend: 0x0, symName: __ZNSt3__16vectorIN2sf6VertexENS_9allocatorIS2_EEEC1ERKS5_, symObjAddr: 0x2A80, symBinAddr: 0x100005C50, symSize: 0x30 }
  - { offsetInCU: 0x23F05, offset: 0x23F05, size: 0x8, addend: 0x0, symName: __ZNSt3__16vectorIN2sf6VertexENS_9allocatorIS2_EEEC2ERKS5_, symObjAddr: 0x2AB0, symBinAddr: 0x100005C80, symSize: 0x110 }
  - { offsetInCU: 0x23F70, offset: 0x23F70, size: 0x8, addend: 0x0, symName: __ZNSt3__116allocator_traitsINS_9allocatorIN2sf6VertexEEEE37select_on_container_copy_constructionB7v160006IS4_vvEES4_RKS4_, symObjAddr: 0x2BC0, symBinAddr: 0x100005D90, symSize: 0x10 }
  - { offsetInCU: 0x23F9F, offset: 0x23F9F, size: 0x8, addend: 0x0, symName: __ZNKSt3__16vectorIN2sf6VertexENS_9allocatorIS2_EEE7__allocB7v160006Ev, symObjAddr: 0x2BD0, symBinAddr: 0x100005DA0, symSize: 0x20 }
  - { offsetInCU: 0x23FD1, offset: 0x23FD1, size: 0x8, addend: 0x0, symName: __ZNSt3__117__compressed_pairIPN2sf6VertexENS_9allocatorIS2_EEEC1B7v160006IDnS5_EEOT_OT0_, symObjAddr: 0x2BF0, symBinAddr: 0x100005DC0, symSize: 0x30 }
  - { offsetInCU: 0x24029, offset: 0x24029, size: 0x8, addend: 0x0, symName: __ZNSt3__16vectorIN2sf6VertexENS_9allocatorIS2_EEE16__destroy_vectorC1ERS5_, symObjAddr: 0x2C60, symBinAddr: 0x100005E30, symSize: 0x30 }
  - { offsetInCU: 0x24062, offset: 0x24062, size: 0x8, addend: 0x0, symName: __ZNKSt3__16vectorIN2sf6VertexENS_9allocatorIS2_EEE4sizeB7v160006Ev, symObjAddr: 0x2CA0, symBinAddr: 0x100005E70, symSize: 0x30 }
  - { offsetInCU: 0x24088, offset: 0x24088, size: 0x8, addend: 0x0, symName: __ZNSt3__16vectorIN2sf6VertexENS_9allocatorIS2_EEE11__vallocateB7v160006Em, symObjAddr: 0x2CD0, symBinAddr: 0x100005EA0, symSize: 0xA0 }
  - { offsetInCU: 0x240CC, offset: 0x240CC, size: 0x8, addend: 0x0, symName: __ZNSt3__16vectorIN2sf6VertexENS_9allocatorIS2_EEE18__construct_at_endIPS2_Li0EEEvT_S8_m, symObjAddr: 0x2D70, symBinAddr: 0x100005F40, symSize: 0x90 }
  - { offsetInCU: 0x2413F, offset: 0x2413F, size: 0x8, addend: 0x0, symName: __ZNSt3__128__exception_guard_exceptionsINS_6vectorIN2sf6VertexENS_9allocatorIS3_EEE16__destroy_vectorEE10__completeB7v160006Ev, symObjAddr: 0x2E00, symBinAddr: 0x100005FD0, symSize: 0x20 }
  - { offsetInCU: 0x24165, offset: 0x24165, size: 0x8, addend: 0x0, symName: __ZNSt3__128__exception_guard_exceptionsINS_6vectorIN2sf6VertexENS_9allocatorIS3_EEE16__destroy_vectorEED1B7v160006Ev, symObjAddr: 0x2E20, symBinAddr: 0x100005FF0, symSize: 0x20 }
  - { offsetInCU: 0x2418F, offset: 0x2418F, size: 0x8, addend: 0x0, symName: __ZNKSt3__117__compressed_pairIPN2sf6VertexENS_9allocatorIS2_EEE6secondB7v160006Ev, symObjAddr: 0x2E40, symBinAddr: 0x100006010, symSize: 0x20 }
  - { offsetInCU: 0x241B5, offset: 0x241B5, size: 0x8, addend: 0x0, symName: __ZNKSt3__122__compressed_pair_elemINS_9allocatorIN2sf6VertexEEELi1ELb1EE5__getB7v160006Ev, symObjAddr: 0x2E60, symBinAddr: 0x100006030, symSize: 0x10 }
  - { offsetInCU: 0x241DB, offset: 0x241DB, size: 0x8, addend: 0x0, symName: __ZNSt3__117__compressed_pairIPN2sf6VertexENS_9allocatorIS2_EEEC2B7v160006IDnS5_EEOT_OT0_, symObjAddr: 0x2E70, symBinAddr: 0x100006040, symSize: 0x40 }
  - { offsetInCU: 0x24233, offset: 0x24233, size: 0x8, addend: 0x0, symName: __ZNSt3__122__compressed_pair_elemIPN2sf6VertexELi0ELb0EEC2B7v160006IDnvEEOT_, symObjAddr: 0x2EB0, symBinAddr: 0x100006080, symSize: 0x20 }
  - { offsetInCU: 0x24275, offset: 0x24275, size: 0x8, addend: 0x0, symName: __ZNSt3__122__compressed_pair_elemINS_9allocatorIN2sf6VertexEEELi1ELb1EEC2B7v160006IS4_vEEOT_, symObjAddr: 0x2ED0, symBinAddr: 0x1000060A0, symSize: 0x10 }
  - { offsetInCU: 0x242B7, offset: 0x242B7, size: 0x8, addend: 0x0, symName: __ZNSt3__128__exception_guard_exceptionsINS_6vectorIN2sf6VertexENS_9allocatorIS3_EEE16__destroy_vectorEEC1B7v160006ES7_, symObjAddr: 0x2EE0, symBinAddr: 0x1000060B0, symSize: 0x30 }
  - { offsetInCU: 0x242EF, offset: 0x242EF, size: 0x8, addend: 0x0, symName: __ZNSt3__128__exception_guard_exceptionsINS_6vectorIN2sf6VertexENS_9allocatorIS3_EEE16__destroy_vectorEEC2B7v160006ES7_, symObjAddr: 0x2F10, symBinAddr: 0x1000060E0, symSize: 0x20 }
  - { offsetInCU: 0x24327, offset: 0x24327, size: 0x8, addend: 0x0, symName: __ZNSt3__16vectorIN2sf6VertexENS_9allocatorIS2_EEE16__destroy_vectorC2ERS5_, symObjAddr: 0x2F30, symBinAddr: 0x100006100, symSize: 0x20 }
  - { offsetInCU: 0x24360, offset: 0x24360, size: 0x8, addend: 0x0, symName: __ZNKSt3__16vectorIN2sf6VertexENS_9allocatorIS2_EEE8max_sizeEv, symObjAddr: 0x2F50, symBinAddr: 0x100006120, symSize: 0x60 }
  - { offsetInCU: 0x24388, offset: 0x24388, size: 0x8, addend: 0x0, symName: __ZNKSt3__16vectorIN2sf6VertexENS_9allocatorIS2_EEE20__throw_length_errorB7v160006Ev, symObjAddr: 0x2FB0, symBinAddr: 0x100006180, symSize: 0x20 }
  - { offsetInCU: 0x243AE, offset: 0x243AE, size: 0x8, addend: 0x0, symName: __ZNSt3__16vectorIN2sf6VertexENS_9allocatorIS2_EEE7__allocB7v160006Ev, symObjAddr: 0x3010, symBinAddr: 0x1000061E0, symSize: 0x20 }
  - { offsetInCU: 0x243D4, offset: 0x243D4, size: 0x8, addend: 0x0, symName: __ZNSt3__16vectorIN2sf6VertexENS_9allocatorIS2_EEE9__end_capB7v160006Ev, symObjAddr: 0x3030, symBinAddr: 0x100006200, symSize: 0x20 }
  - { offsetInCU: 0x243FA, offset: 0x243FA, size: 0x8, addend: 0x0, symName: __ZNKSt3__16vectorIN2sf6VertexENS_9allocatorIS2_EEE14__annotate_newB7v160006Em, symObjAddr: 0x3050, symBinAddr: 0x100006220, symSize: 0xA0 }
  - { offsetInCU: 0x2442F, offset: 0x2442F, size: 0x8, addend: 0x0, symName: __ZNSt3__116allocator_traitsINS_9allocatorIN2sf6VertexEEEE8max_sizeB7v160006IS4_vEEmRKS4_, symObjAddr: 0x3120, symBinAddr: 0x1000062F0, symSize: 0x20 }
  - { offsetInCU: 0x2445D, offset: 0x2445D, size: 0x8, addend: 0x0, symName: __ZNSt3__114numeric_limitsIlE3maxB7v160006Ev, symObjAddr: 0x3140, symBinAddr: 0x100006310, symSize: 0x10 }
  - { offsetInCU: 0x2447B, offset: 0x2447B, size: 0x8, addend: 0x0, symName: __ZNKSt3__16__lessImmEclB7v160006ERKmS3_, symObjAddr: 0x31A0, symBinAddr: 0x100006370, symSize: 0x30 }
  - { offsetInCU: 0x244BD, offset: 0x244BD, size: 0x8, addend: 0x0, symName: __ZNKSt3__19allocatorIN2sf6VertexEE8max_sizeB7v160006Ev, symObjAddr: 0x31D0, symBinAddr: 0x1000063A0, symSize: 0x20 }
  - { offsetInCU: 0x244E3, offset: 0x244E3, size: 0x8, addend: 0x0, symName: __ZNSt3__123__libcpp_numeric_limitsIlLb1EE3maxB7v160006Ev, symObjAddr: 0x31F0, symBinAddr: 0x1000063C0, symSize: 0x10 }
  - { offsetInCU: 0x244F7, offset: 0x244F7, size: 0x8, addend: 0x0, symName: __ZNSt12length_errorC1B7v160006EPKc, symObjAddr: 0x3270, symBinAddr: 0x100006440, symSize: 0x30 }
  - { offsetInCU: 0x2452F, offset: 0x2452F, size: 0x8, addend: 0x0, symName: __ZNSt12length_errorC2B7v160006EPKc, symObjAddr: 0x32A0, symBinAddr: 0x100006470, symSize: 0x40 }
  - { offsetInCU: 0x24567, offset: 0x24567, size: 0x8, addend: 0x0, symName: __ZNSt3__19allocatorIN2sf6VertexEE8allocateB7v160006Em, symObjAddr: 0x32E0, symBinAddr: 0x1000064B0, symSize: 0x50 }
  - { offsetInCU: 0x2459B, offset: 0x2459B, size: 0x8, addend: 0x0, symName: __ZNSt3__117__compressed_pairIPN2sf6VertexENS_9allocatorIS2_EEE6secondB7v160006Ev, symObjAddr: 0x3420, symBinAddr: 0x1000065F0, symSize: 0x20 }
  - { offsetInCU: 0x245C1, offset: 0x245C1, size: 0x8, addend: 0x0, symName: __ZNSt3__122__compressed_pair_elemINS_9allocatorIN2sf6VertexEEELi1ELb1EE5__getB7v160006Ev, symObjAddr: 0x3440, symBinAddr: 0x100006610, symSize: 0x10 }
  - { offsetInCU: 0x245E7, offset: 0x245E7, size: 0x8, addend: 0x0, symName: __ZNSt3__117__compressed_pairIPN2sf6VertexENS_9allocatorIS2_EEE5firstB7v160006Ev, symObjAddr: 0x3450, symBinAddr: 0x100006620, symSize: 0x20 }
  - { offsetInCU: 0x2460D, offset: 0x2460D, size: 0x8, addend: 0x0, symName: __ZNSt3__122__compressed_pair_elemIPN2sf6VertexELi0ELb0EE5__getB7v160006Ev, symObjAddr: 0x3470, symBinAddr: 0x100006640, symSize: 0x10 }
  - { offsetInCU: 0x24633, offset: 0x24633, size: 0x8, addend: 0x0, symName: __ZNKSt3__16vectorIN2sf6VertexENS_9allocatorIS2_EEE31__annotate_contiguous_containerB7v160006EPKvS7_S7_S7_, symObjAddr: 0x3480, symBinAddr: 0x100006650, symSize: 0x20 }
  - { offsetInCU: 0x24685, offset: 0x24685, size: 0x8, addend: 0x0, symName: __ZNKSt3__16vectorIN2sf6VertexENS_9allocatorIS2_EEE4dataB7v160006Ev, symObjAddr: 0x34A0, symBinAddr: 0x100006670, symSize: 0x20 }
  - { offsetInCU: 0x246AB, offset: 0x246AB, size: 0x8, addend: 0x0, symName: __ZNKSt3__16vectorIN2sf6VertexENS_9allocatorIS2_EEE8capacityB7v160006Ev, symObjAddr: 0x34C0, symBinAddr: 0x100006690, symSize: 0x40 }
  - { offsetInCU: 0x246D1, offset: 0x246D1, size: 0x8, addend: 0x0, symName: __ZNKSt3__16vectorIN2sf6VertexENS_9allocatorIS2_EEE9__end_capB7v160006Ev, symObjAddr: 0x3510, symBinAddr: 0x1000066E0, symSize: 0x20 }
  - { offsetInCU: 0x246F7, offset: 0x246F7, size: 0x8, addend: 0x0, symName: __ZNKSt3__117__compressed_pairIPN2sf6VertexENS_9allocatorIS2_EEE5firstB7v160006Ev, symObjAddr: 0x3530, symBinAddr: 0x100006700, symSize: 0x20 }
  - { offsetInCU: 0x2471D, offset: 0x2471D, size: 0x8, addend: 0x0, symName: __ZNKSt3__122__compressed_pair_elemIPN2sf6VertexELi0ELb0EE5__getB7v160006Ev, symObjAddr: 0x3550, symBinAddr: 0x100006720, symSize: 0x10 }
  - { offsetInCU: 0x2475E, offset: 0x2475E, size: 0x8, addend: 0x0, symName: __ZNSt3__16vectorIN2sf6VertexENS_9allocatorIS2_EEE21_ConstructTransactionC1B7v160006ERS5_m, symObjAddr: 0x3560, symBinAddr: 0x100006730, symSize: 0x30 }
  - { offsetInCU: 0x247A6, offset: 0x247A6, size: 0x8, addend: 0x0, symName: __ZNSt3__16vectorIN2sf6VertexENS_9allocatorIS2_EEE21_ConstructTransactionD1B7v160006Ev, symObjAddr: 0x3690, symBinAddr: 0x100006860, symSize: 0x20 }
  - { offsetInCU: 0x247D0, offset: 0x247D0, size: 0x8, addend: 0x0, symName: __ZNSt3__16vectorIN2sf6VertexENS_9allocatorIS2_EEE21_ConstructTransactionC2B7v160006ERS5_m, symObjAddr: 0x36B0, symBinAddr: 0x100006880, symSize: 0x40 }
  - { offsetInCU: 0x24818, offset: 0x24818, size: 0x8, addend: 0x0, symName: __ZNSt3__129_AllocatorDestroyRangeReverseINS_9allocatorIN2sf6VertexEEEPS3_EC1B7v160006ERS4_RS5_S8_, symObjAddr: 0x3750, symBinAddr: 0x100006920, symSize: 0x40 }
  - { offsetInCU: 0x2486F, offset: 0x2486F, size: 0x8, addend: 0x0, symName: __ZNSt3__116allocator_traitsINS_9allocatorIN2sf6VertexEEEE9constructB7v160006IS3_JRS3_EvEEvRS4_PT_DpOT0_, symObjAddr: 0x3790, symBinAddr: 0x100006960, symSize: 0x30 }
  - { offsetInCU: 0x248C6, offset: 0x248C6, size: 0x8, addend: 0x0, symName: __ZNSt3__128__exception_guard_exceptionsINS_29_AllocatorDestroyRangeReverseINS_9allocatorIN2sf6VertexEEEPS4_EEE10__completeB7v160006Ev, symObjAddr: 0x37C0, symBinAddr: 0x100006990, symSize: 0x20 }
  - { offsetInCU: 0x248EC, offset: 0x248EC, size: 0x8, addend: 0x0, symName: __ZNSt3__128__exception_guard_exceptionsINS_29_AllocatorDestroyRangeReverseINS_9allocatorIN2sf6VertexEEEPS4_EEED1B7v160006Ev, symObjAddr: 0x37E0, symBinAddr: 0x1000069B0, symSize: 0x20 }
  - { offsetInCU: 0x24916, offset: 0x24916, size: 0x8, addend: 0x0, symName: __ZNSt3__128__exception_guard_exceptionsINS_29_AllocatorDestroyRangeReverseINS_9allocatorIN2sf6VertexEEEPS4_EEEC1B7v160006ES7_, symObjAddr: 0x3800, symBinAddr: 0x1000069D0, symSize: 0x40 }
  - { offsetInCU: 0x2494E, offset: 0x2494E, size: 0x8, addend: 0x0, symName: __ZNSt3__128__exception_guard_exceptionsINS_29_AllocatorDestroyRangeReverseINS_9allocatorIN2sf6VertexEEEPS4_EEEC2B7v160006ES7_, symObjAddr: 0x3840, symBinAddr: 0x100006A10, symSize: 0x30 }
  - { offsetInCU: 0x24986, offset: 0x24986, size: 0x8, addend: 0x0, symName: __ZNSt3__129_AllocatorDestroyRangeReverseINS_9allocatorIN2sf6VertexEEEPS3_EC2B7v160006ERS4_RS5_S8_, symObjAddr: 0x3870, symBinAddr: 0x100006A40, symSize: 0x40 }
  - { offsetInCU: 0x249DD, offset: 0x249DD, size: 0x8, addend: 0x0, symName: __ZNSt3__19allocatorIN2sf6VertexEE9constructB7v160006IS2_JRS2_EEEvPT_DpOT0_, symObjAddr: 0x38B0, symBinAddr: 0x100006A80, symSize: 0x30 }
  - { offsetInCU: 0x24A33, offset: 0x24A33, size: 0x8, addend: 0x0, symName: __ZNSt3__128__exception_guard_exceptionsINS_29_AllocatorDestroyRangeReverseINS_9allocatorIN2sf6VertexEEEPS4_EEED2B7v160006Ev, symObjAddr: 0x38E0, symBinAddr: 0x100006AB0, symSize: 0x40 }
  - { offsetInCU: 0x24A5D, offset: 0x24A5D, size: 0x8, addend: 0x0, symName: __ZNKSt3__129_AllocatorDestroyRangeReverseINS_9allocatorIN2sf6VertexEEEPS3_EclB7v160006Ev, symObjAddr: 0x3920, symBinAddr: 0x100006AF0, symSize: 0x60 }
  - { offsetInCU: 0x24A83, offset: 0x24A83, size: 0x8, addend: 0x0, symName: __ZNSt3__116reverse_iteratorIPN2sf6VertexEEC1B7v160006ES3_, symObjAddr: 0x39F0, symBinAddr: 0x100006BC0, symSize: 0x30 }
  - { offsetInCU: 0x24ABB, offset: 0x24ABB, size: 0x8, addend: 0x0, symName: __ZNSt3__116allocator_traitsINS_9allocatorIN2sf6VertexEEEE7destroyB7v160006IS3_vEEvRS4_PT_, symObjAddr: 0x3A60, symBinAddr: 0x100006C30, symSize: 0x30 }
  - { offsetInCU: 0x24AF8, offset: 0x24AF8, size: 0x8, addend: 0x0, symName: __ZNSt3__116reverse_iteratorIPN2sf6VertexEEppB7v160006Ev, symObjAddr: 0x3AB0, symBinAddr: 0x100006C80, symSize: 0x20 }
  - { offsetInCU: 0x24B1E, offset: 0x24B1E, size: 0x8, addend: 0x0, symName: __ZNKSt3__116reverse_iteratorIPN2sf6VertexEE4baseB7v160006Ev, symObjAddr: 0x3AD0, symBinAddr: 0x100006CA0, symSize: 0x20 }
  - { offsetInCU: 0x24B44, offset: 0x24B44, size: 0x8, addend: 0x0, symName: __ZNSt3__19allocatorIN2sf6VertexEE7destroyB7v160006EPS2_, symObjAddr: 0x3AF0, symBinAddr: 0x100006CC0, symSize: 0x10 }
  - { offsetInCU: 0x24B7E, offset: 0x24B7E, size: 0x8, addend: 0x0, symName: __ZNSt3__119__to_address_helperINS_16reverse_iteratorIPN2sf6VertexEEEvE6__callB7v160006ERKS5_, symObjAddr: 0x3B00, symBinAddr: 0x100006CD0, symSize: 0x40 }
  - { offsetInCU: 0x24BA1, offset: 0x24BA1, size: 0x8, addend: 0x0, symName: __ZNKSt3__116reverse_iteratorIPN2sf6VertexEEptB7v160006Ev, symObjAddr: 0x3B40, symBinAddr: 0x100006D10, symSize: 0x20 }
  - { offsetInCU: 0x24BC7, offset: 0x24BC7, size: 0x8, addend: 0x0, symName: __ZNKSt3__116reverse_iteratorIPN2sf6VertexEEdeB7v160006Ev, symObjAddr: 0x3B60, symBinAddr: 0x100006D30, symSize: 0x30 }
  - { offsetInCU: 0x24BFB, offset: 0x24BFB, size: 0x8, addend: 0x0, symName: __ZNSt3__116reverse_iteratorIPN2sf6VertexEEC2B7v160006ES3_, symObjAddr: 0x3B90, symBinAddr: 0x100006D60, symSize: 0x30 }
  - { offsetInCU: 0x24C33, offset: 0x24C33, size: 0x8, addend: 0x0, symName: __ZNSt3__16vectorIN2sf6VertexENS_9allocatorIS2_EEE21_ConstructTransactionD2B7v160006Ev, symObjAddr: 0x3BC0, symBinAddr: 0x100006D90, symSize: 0x20 }
  - { offsetInCU: 0x24C5D, offset: 0x24C5D, size: 0x8, addend: 0x0, symName: __ZNSt3__128__exception_guard_exceptionsINS_6vectorIN2sf6VertexENS_9allocatorIS3_EEE16__destroy_vectorEED2B7v160006Ev, symObjAddr: 0x3BE0, symBinAddr: 0x100006DB0, symSize: 0x40 }
  - { offsetInCU: 0x24C87, offset: 0x24C87, size: 0x8, addend: 0x0, symName: __ZNSt3__16vectorIN2sf6VertexENS_9allocatorIS2_EEE16__destroy_vectorclB7v160006Ev, symObjAddr: 0x3C20, symBinAddr: 0x100006DF0, symSize: 0x90 }
  - { offsetInCU: 0x24CAD, offset: 0x24CAD, size: 0x8, addend: 0x0, symName: __ZNKSt3__16vectorIN2sf6VertexENS_9allocatorIS2_EEE17__annotate_deleteB7v160006Ev, symObjAddr: 0x3CB0, symBinAddr: 0x100006E80, symSize: 0xB0 }
  - { offsetInCU: 0x24CD3, offset: 0x24CD3, size: 0x8, addend: 0x0, symName: __ZNSt3__16vectorIN2sf6VertexENS_9allocatorIS2_EEE7__clearB7v160006Ev, symObjAddr: 0x3D70, symBinAddr: 0x100006F40, symSize: 0x20 }
  - { offsetInCU: 0x24CF9, offset: 0x24CF9, size: 0x8, addend: 0x0, symName: __ZNSt3__116allocator_traitsINS_9allocatorIN2sf6VertexEEEE10deallocateB7v160006ERS4_PS3_m, symObjAddr: 0x3D90, symBinAddr: 0x100006F60, symSize: 0x30 }
  - { offsetInCU: 0x24D3B, offset: 0x24D3B, size: 0x8, addend: 0x0, symName: __ZNSt3__16vectorIN2sf6VertexENS_9allocatorIS2_EEE22__base_destruct_at_endB7v160006EPS2_, symObjAddr: 0x3DC0, symBinAddr: 0x100006F90, symSize: 0x80 }
  - { offsetInCU: 0x24D7F, offset: 0x24D7F, size: 0x8, addend: 0x0, symName: __ZNSt3__19allocatorIN2sf6VertexEE10deallocateB7v160006EPS2_m, symObjAddr: 0x3E40, symBinAddr: 0x100007010, symSize: 0x50 }
  - { offsetInCU: 0x24DC1, offset: 0x24DC1, size: 0x8, addend: 0x0, symName: __ZN2sf11VertexArrayD2Ev, symObjAddr: 0x3E90, symBinAddr: 0x100007060, symSize: 0x40 }
  - { offsetInCU: 0x24DED, offset: 0x24DED, size: 0x8, addend: 0x0, symName: __ZNSt3__16vectorIN2sf6VertexENS_9allocatorIS2_EEED1B7v160006Ev, symObjAddr: 0x3ED0, symBinAddr: 0x1000070A0, symSize: 0x20 }
  - { offsetInCU: 0x24E17, offset: 0x24E17, size: 0x8, addend: 0x0, symName: __ZNSt3__16vectorIN2sf6VertexENS_9allocatorIS2_EEED2B7v160006Ev, symObjAddr: 0x3EF0, symBinAddr: 0x1000070C0, symSize: 0x40 }
  - { offsetInCU: 0x24E41, offset: 0x24E41, size: 0x8, addend: 0x0, symName: __ZN2sf14RectangleShapeC2ERKS0_, symObjAddr: 0x3F30, symBinAddr: 0x100007100, symSize: 0x60 }
  - { offsetInCU: 0x24E76, offset: 0x24E76, size: 0x8, addend: 0x0, symName: __ZN8QuadTreeC2E9Rectanglei, symObjAddr: 0x3F90, symBinAddr: 0x100007160, symSize: 0x80 }
  - { offsetInCU: 0x24EBD, offset: 0x24EBD, size: 0x8, addend: 0x0, symName: __ZNSt3__16vectorIN2sf7Vector2IfEENS_9allocatorIS3_EEEC1B7v160006Ev, symObjAddr: 0x4010, symBinAddr: 0x1000071E0, symSize: 0x20 }
  - { offsetInCU: 0x24EE7, offset: 0x24EE7, size: 0x8, addend: 0x0, symName: __ZNSt3__16vectorIN2sf7Vector2IfEENS_9allocatorIS3_EEEC2B7v160006Ev, symObjAddr: 0x4030, symBinAddr: 0x100007200, symSize: 0x60 }
  - { offsetInCU: 0x24F17, offset: 0x24F17, size: 0x8, addend: 0x0, symName: __ZNSt3__117__compressed_pairIPN2sf7Vector2IfEENS_9allocatorIS3_EEEC1B7v160006IDnNS_18__default_init_tagEEEOT_OT0_, symObjAddr: 0x4090, symBinAddr: 0x100007260, symSize: 0x30 }
  - { offsetInCU: 0x24F6F, offset: 0x24F6F, size: 0x8, addend: 0x0, symName: __ZNSt3__117__compressed_pairIPN2sf7Vector2IfEENS_9allocatorIS3_EEEC2B7v160006IDnNS_18__default_init_tagEEEOT_OT0_, symObjAddr: 0x40D0, symBinAddr: 0x1000072A0, symSize: 0x40 }
  - { offsetInCU: 0x24FC7, offset: 0x24FC7, size: 0x8, addend: 0x0, symName: __ZNSt3__122__compressed_pair_elemIPN2sf7Vector2IfEELi0ELb0EEC2B7v160006IDnvEEOT_, symObjAddr: 0x4110, symBinAddr: 0x1000072E0, symSize: 0x20 }
  - { offsetInCU: 0x25009, offset: 0x25009, size: 0x8, addend: 0x0, symName: __ZNSt3__122__compressed_pair_elemINS_9allocatorIN2sf7Vector2IfEEEELi1ELb1EEC2B7v160006ENS_18__default_init_tagE, symObjAddr: 0x4130, symBinAddr: 0x100007300, symSize: 0x20 }
  - { offsetInCU: 0x2503E, offset: 0x2503E, size: 0x8, addend: 0x0, symName: __ZNSt3__19allocatorIN2sf7Vector2IfEEEC2B7v160006Ev, symObjAddr: 0x4150, symBinAddr: 0x100007320, symSize: 0x20 }
  - { offsetInCU: 0x25068, offset: 0x25068, size: 0x8, addend: 0x0, symName: __ZNSt3__116__non_trivial_ifILb1ENS_9allocatorIN2sf7Vector2IfEEEEEC2B7v160006Ev, symObjAddr: 0x4170, symBinAddr: 0x100007340, symSize: 0x10 }
  - { offsetInCU: 0x25092, offset: 0x25092, size: 0x8, addend: 0x0, symName: __ZN9RectangleD2Ev, symObjAddr: 0x4180, symBinAddr: 0x100007350, symSize: 0x30 }
  - { offsetInCU: 0x250BE, offset: 0x250BE, size: 0x8, addend: 0x0, symName: __ZN5PointC2EN2sf7Vector2IfEE, symObjAddr: 0x41B0, symBinAddr: 0x100007380, symSize: 0x110 }
  - { offsetInCU: 0x250F6, offset: 0x250F6, size: 0x8, addend: 0x0, symName: __ZN2sf7Vector2IfEC1Ev, symObjAddr: 0x42C0, symBinAddr: 0x100007490, symSize: 0x20 }
  - { offsetInCU: 0x25122, offset: 0x25122, size: 0x8, addend: 0x0, symName: __ZN2sf7Vector2IfEC2Ev, symObjAddr: 0x42E0, symBinAddr: 0x1000074B0, symSize: 0x20 }
  - { offsetInCU: 0x2514E, offset: 0x2514E, size: 0x8, addend: 0x0, symName: __ZN5PointD2Ev, symObjAddr: 0x4300, symBinAddr: 0x1000074D0, symSize: 0x20 }
  - { offsetInCU: 0x2517A, offset: 0x2517A, size: 0x8, addend: 0x0, symName: __ZN9Rectangle8containsEN2sf7Vector2IfEE, symObjAddr: 0x4320, symBinAddr: 0x1000074F0, symSize: 0x110 }
  - { offsetInCU: 0x251CA, offset: 0x251CA, size: 0x8, addend: 0x0, symName: __ZNKSt3__16vectorIN2sf7Vector2IfEENS_9allocatorIS3_EEE4sizeB7v160006Ev, symObjAddr: 0x4430, symBinAddr: 0x100007600, symSize: 0x20 }
  - { offsetInCU: 0x251F0, offset: 0x251F0, size: 0x8, addend: 0x0, symName: __ZNSt3__16vectorIN2sf7Vector2IfEENS_9allocatorIS3_EEE9push_backB7v160006ERKS3_, symObjAddr: 0x4450, symBinAddr: 0x100007620, symSize: 0x60 }
  - { offsetInCU: 0x25227, offset: 0x25227, size: 0x8, addend: 0x0, symName: __ZN8QuadTree9subdivideEv, symObjAddr: 0x44B0, symBinAddr: 0x100007680, symSize: 0x6B0 }
  - { offsetInCU: 0x252A5, offset: 0x252A5, size: 0x8, addend: 0x0, symName: __ZNSt3__16vectorIN2sf7Vector2IfEENS_9allocatorIS3_EEE9__end_capB7v160006Ev, symObjAddr: 0x4B60, symBinAddr: 0x100007D30, symSize: 0x20 }
  - { offsetInCU: 0x252CB, offset: 0x252CB, size: 0x8, addend: 0x0, symName: __ZNSt3__16vectorIN2sf7Vector2IfEENS_9allocatorIS3_EEE22__construct_one_at_endB7v160006IJRKS3_EEEvDpOT_, symObjAddr: 0x4B80, symBinAddr: 0x100007D50, symSize: 0x90 }
  - { offsetInCU: 0x2531A, offset: 0x2531A, size: 0x8, addend: 0x0, symName: __ZNSt3__16vectorIN2sf7Vector2IfEENS_9allocatorIS3_EEE21__push_back_slow_pathIRKS3_EEvOT_, symObjAddr: 0x4C10, symBinAddr: 0x100007DE0, symSize: 0xD0 }
  - { offsetInCU: 0x25378, offset: 0x25378, size: 0x8, addend: 0x0, symName: __ZNSt3__117__compressed_pairIPN2sf7Vector2IfEENS_9allocatorIS3_EEE5firstB7v160006Ev, symObjAddr: 0x4CE0, symBinAddr: 0x100007EB0, symSize: 0x20 }
  - { offsetInCU: 0x2539E, offset: 0x2539E, size: 0x8, addend: 0x0, symName: __ZNSt3__122__compressed_pair_elemIPN2sf7Vector2IfEELi0ELb0EE5__getB7v160006Ev, symObjAddr: 0x4D00, symBinAddr: 0x100007ED0, symSize: 0x10 }
  - { offsetInCU: 0x253DF, offset: 0x253DF, size: 0x8, addend: 0x0, symName: __ZNSt3__16vectorIN2sf7Vector2IfEENS_9allocatorIS3_EEE21_ConstructTransactionC1B7v160006ERS6_m, symObjAddr: 0x4D10, symBinAddr: 0x100007EE0, symSize: 0x30 }
  - { offsetInCU: 0x25427, offset: 0x25427, size: 0x8, addend: 0x0, symName: __ZNSt3__116allocator_traitsINS_9allocatorIN2sf7Vector2IfEEEEE9constructB7v160006IS4_JRKS4_EvEEvRS5_PT_DpOT0_, symObjAddr: 0x4D40, symBinAddr: 0x100007F10, symSize: 0x30 }
  - { offsetInCU: 0x2547E, offset: 0x2547E, size: 0x8, addend: 0x0, symName: __ZNSt3__16vectorIN2sf7Vector2IfEENS_9allocatorIS3_EEE7__allocB7v160006Ev, symObjAddr: 0x4D70, symBinAddr: 0x100007F40, symSize: 0x20 }
  - { offsetInCU: 0x254A4, offset: 0x254A4, size: 0x8, addend: 0x0, symName: __ZNSt3__16vectorIN2sf7Vector2IfEENS_9allocatorIS3_EEE21_ConstructTransactionD1B7v160006Ev, symObjAddr: 0x4DA0, symBinAddr: 0x100007F70, symSize: 0x20 }
  - { offsetInCU: 0x254CE, offset: 0x254CE, size: 0x8, addend: 0x0, symName: __ZNSt3__16vectorIN2sf7Vector2IfEENS_9allocatorIS3_EEE21_ConstructTransactionC2B7v160006ERS6_m, symObjAddr: 0x4DC0, symBinAddr: 0x100007F90, symSize: 0x40 }
  - { offsetInCU: 0x25516, offset: 0x25516, size: 0x8, addend: 0x0, symName: __ZNSt3__19allocatorIN2sf7Vector2IfEEE9constructB7v160006IS3_JRKS3_EEEvPT_DpOT0_, symObjAddr: 0x4E00, symBinAddr: 0x100007FD0, symSize: 0x20 }
  - { offsetInCU: 0x2556C, offset: 0x2556C, size: 0x8, addend: 0x0, symName: __ZNSt3__117__compressed_pairIPN2sf7Vector2IfEENS_9allocatorIS3_EEE6secondB7v160006Ev, symObjAddr: 0x4E20, symBinAddr: 0x100007FF0, symSize: 0x20 }
  - { offsetInCU: 0x25592, offset: 0x25592, size: 0x8, addend: 0x0, symName: __ZNSt3__122__compressed_pair_elemINS_9allocatorIN2sf7Vector2IfEEEELi1ELb1EE5__getB7v160006Ev, symObjAddr: 0x4E40, symBinAddr: 0x100008010, symSize: 0x10 }
  - { offsetInCU: 0x255B8, offset: 0x255B8, size: 0x8, addend: 0x0, symName: __ZNSt3__16vectorIN2sf7Vector2IfEENS_9allocatorIS3_EEE21_ConstructTransactionD2B7v160006Ev, symObjAddr: 0x4E50, symBinAddr: 0x100008020, symSize: 0x20 }
  - { offsetInCU: 0x255E2, offset: 0x255E2, size: 0x8, addend: 0x0, symName: __ZNKSt3__16vectorIN2sf7Vector2IfEENS_9allocatorIS3_EEE11__recommendB7v160006Em, symObjAddr: 0x4E70, symBinAddr: 0x100008040, symSize: 0xA0 }
  - { offsetInCU: 0x25637, offset: 0x25637, size: 0x8, addend: 0x0, symName: __ZNSt3__114__split_bufferIN2sf7Vector2IfEERNS_9allocatorIS3_EEEC1EmmS6_, symObjAddr: 0x4F10, symBinAddr: 0x1000080E0, symSize: 0x40 }
  - { offsetInCU: 0x2568D, offset: 0x2568D, size: 0x8, addend: 0x0, symName: __ZNSt3__114__split_bufferIN2sf7Vector2IfEERNS_9allocatorIS3_EEED1Ev, symObjAddr: 0x5080, symBinAddr: 0x100008250, symSize: 0x20 }
  - { offsetInCU: 0x256B9, offset: 0x256B9, size: 0x8, addend: 0x0, symName: __ZNKSt3__16vectorIN2sf7Vector2IfEENS_9allocatorIS3_EEE8max_sizeEv, symObjAddr: 0x50A0, symBinAddr: 0x100008270, symSize: 0x60 }
  - { offsetInCU: 0x256E1, offset: 0x256E1, size: 0x8, addend: 0x0, symName: __ZNKSt3__16vectorIN2sf7Vector2IfEENS_9allocatorIS3_EEE20__throw_length_errorB7v160006Ev, symObjAddr: 0x5100, symBinAddr: 0x1000082D0, symSize: 0x20 }
  - { offsetInCU: 0x25707, offset: 0x25707, size: 0x8, addend: 0x0, symName: __ZNKSt3__16vectorIN2sf7Vector2IfEENS_9allocatorIS3_EEE8capacityB7v160006Ev, symObjAddr: 0x5120, symBinAddr: 0x1000082F0, symSize: 0x30 }
  - { offsetInCU: 0x25738, offset: 0x25738, size: 0x8, addend: 0x0, symName: __ZNSt3__116allocator_traitsINS_9allocatorIN2sf7Vector2IfEEEEE8max_sizeB7v160006IS5_vEEmRKS5_, symObjAddr: 0x5180, symBinAddr: 0x100008350, symSize: 0x20 }
  - { offsetInCU: 0x25766, offset: 0x25766, size: 0x8, addend: 0x0, symName: __ZNKSt3__16vectorIN2sf7Vector2IfEENS_9allocatorIS3_EEE7__allocB7v160006Ev, symObjAddr: 0x51A0, symBinAddr: 0x100008370, symSize: 0x20 }
  - { offsetInCU: 0x2578C, offset: 0x2578C, size: 0x8, addend: 0x0, symName: __ZNKSt3__19allocatorIN2sf7Vector2IfEEE8max_sizeB7v160006Ev, symObjAddr: 0x51C0, symBinAddr: 0x100008390, symSize: 0x20 }
  - { offsetInCU: 0x257B2, offset: 0x257B2, size: 0x8, addend: 0x0, symName: __ZNKSt3__117__compressed_pairIPN2sf7Vector2IfEENS_9allocatorIS3_EEE6secondB7v160006Ev, symObjAddr: 0x51E0, symBinAddr: 0x1000083B0, symSize: 0x20 }
  - { offsetInCU: 0x257D8, offset: 0x257D8, size: 0x8, addend: 0x0, symName: __ZNKSt3__122__compressed_pair_elemINS_9allocatorIN2sf7Vector2IfEEEELi1ELb1EE5__getB7v160006Ev, symObjAddr: 0x5200, symBinAddr: 0x1000083D0, symSize: 0x10 }
  - { offsetInCU: 0x257FE, offset: 0x257FE, size: 0x8, addend: 0x0, symName: __ZNKSt3__16vectorIN2sf7Vector2IfEENS_9allocatorIS3_EEE9__end_capB7v160006Ev, symObjAddr: 0x5210, symBinAddr: 0x1000083E0, symSize: 0x20 }
  - { offsetInCU: 0x25824, offset: 0x25824, size: 0x8, addend: 0x0, symName: __ZNKSt3__117__compressed_pairIPN2sf7Vector2IfEENS_9allocatorIS3_EEE5firstB7v160006Ev, symObjAddr: 0x5230, symBinAddr: 0x100008400, symSize: 0x20 }
  - { offsetInCU: 0x2584A, offset: 0x2584A, size: 0x8, addend: 0x0, symName: __ZNKSt3__122__compressed_pair_elemIPN2sf7Vector2IfEELi0ELb0EE5__getB7v160006Ev, symObjAddr: 0x5250, symBinAddr: 0x100008420, symSize: 0x10 }
  - { offsetInCU: 0x25870, offset: 0x25870, size: 0x8, addend: 0x0, symName: __ZNSt3__114__split_bufferIN2sf7Vector2IfEERNS_9allocatorIS3_EEEC2EmmS6_, symObjAddr: 0x52B0, symBinAddr: 0x100008480, symSize: 0xD0 }
  - { offsetInCU: 0x258E3, offset: 0x258E3, size: 0x8, addend: 0x0, symName: __ZNSt3__117__compressed_pairIPN2sf7Vector2IfEERNS_9allocatorIS3_EEEC1B7v160006IDnS7_EEOT_OT0_, symObjAddr: 0x5380, symBinAddr: 0x100008550, symSize: 0x30 }
  - { offsetInCU: 0x2593B, offset: 0x2593B, size: 0x8, addend: 0x0, symName: __ZNSt3__114__split_bufferIN2sf7Vector2IfEERNS_9allocatorIS3_EEE7__allocB7v160006Ev, symObjAddr: 0x53F0, symBinAddr: 0x1000085C0, symSize: 0x20 }
  - { offsetInCU: 0x25961, offset: 0x25961, size: 0x8, addend: 0x0, symName: __ZNSt3__114__split_bufferIN2sf7Vector2IfEERNS_9allocatorIS3_EEE9__end_capB7v160006Ev, symObjAddr: 0x5410, symBinAddr: 0x1000085E0, symSize: 0x20 }
  - { offsetInCU: 0x25987, offset: 0x25987, size: 0x8, addend: 0x0, symName: __ZNSt3__117__compressed_pairIPN2sf7Vector2IfEERNS_9allocatorIS3_EEEC2B7v160006IDnS7_EEOT_OT0_, symObjAddr: 0x5430, symBinAddr: 0x100008600, symSize: 0x40 }
  - { offsetInCU: 0x259DF, offset: 0x259DF, size: 0x8, addend: 0x0, symName: __ZNSt3__122__compressed_pair_elemIRNS_9allocatorIN2sf7Vector2IfEEEELi1ELb0EEC2B7v160006IS6_vEEOT_, symObjAddr: 0x5470, symBinAddr: 0x100008640, symSize: 0x20 }
  - { offsetInCU: 0x25A21, offset: 0x25A21, size: 0x8, addend: 0x0, symName: __ZNSt3__19allocatorIN2sf7Vector2IfEEE8allocateB7v160006Em, symObjAddr: 0x5490, symBinAddr: 0x100008660, symSize: 0x50 }
  - { offsetInCU: 0x25A55, offset: 0x25A55, size: 0x8, addend: 0x0, symName: __ZNSt3__117__compressed_pairIPN2sf7Vector2IfEERNS_9allocatorIS3_EEE6secondB7v160006Ev, symObjAddr: 0x54E0, symBinAddr: 0x1000086B0, symSize: 0x20 }
  - { offsetInCU: 0x25A7B, offset: 0x25A7B, size: 0x8, addend: 0x0, symName: __ZNSt3__122__compressed_pair_elemIRNS_9allocatorIN2sf7Vector2IfEEEELi1ELb0EE5__getB7v160006Ev, symObjAddr: 0x5500, symBinAddr: 0x1000086D0, symSize: 0x20 }
  - { offsetInCU: 0x25AA1, offset: 0x25AA1, size: 0x8, addend: 0x0, symName: __ZNSt3__117__compressed_pairIPN2sf7Vector2IfEERNS_9allocatorIS3_EEE5firstB7v160006Ev, symObjAddr: 0x5520, symBinAddr: 0x1000086F0, symSize: 0x20 }
  - { offsetInCU: 0x25AC7, offset: 0x25AC7, size: 0x8, addend: 0x0, symName: __ZNKSt3__16vectorIN2sf7Vector2IfEENS_9allocatorIS3_EEE17__annotate_deleteB7v160006Ev, symObjAddr: 0x5540, symBinAddr: 0x100008710, symSize: 0xB0 }
  - { offsetInCU: 0x25AED, offset: 0x25AED, size: 0x8, addend: 0x0, symName: __ZNSt3__116reverse_iteratorIPN2sf7Vector2IfEEEC1B7v160006ES4_, symObjAddr: 0x5660, symBinAddr: 0x100008830, symSize: 0x30 }
  - { offsetInCU: 0x25B25, offset: 0x25B25, size: 0x8, addend: 0x0, symName: __ZNKSt3__116reverse_iteratorIPN2sf7Vector2IfEEE4baseB7v160006Ev, symObjAddr: 0x5690, symBinAddr: 0x100008860, symSize: 0x20 }
  - { offsetInCU: 0x25B4B, offset: 0x25B4B, size: 0x8, addend: 0x0, symName: __ZNKSt3__16vectorIN2sf7Vector2IfEENS_9allocatorIS3_EEE14__annotate_newB7v160006Em, symObjAddr: 0x56F0, symBinAddr: 0x1000088C0, symSize: 0xB0 }
  - { offsetInCU: 0x25B80, offset: 0x25B80, size: 0x8, addend: 0x0, symName: __ZNKSt3__16vectorIN2sf7Vector2IfEENS_9allocatorIS3_EEE31__annotate_contiguous_containerB7v160006EPKvS8_S8_S8_, symObjAddr: 0x57B0, symBinAddr: 0x100008980, symSize: 0x20 }
  - { offsetInCU: 0x25BD2, offset: 0x25BD2, size: 0x8, addend: 0x0, symName: __ZNKSt3__16vectorIN2sf7Vector2IfEENS_9allocatorIS3_EEE4dataB7v160006Ev, symObjAddr: 0x57D0, symBinAddr: 0x1000089A0, symSize: 0x20 }
  - { offsetInCU: 0x25C1E, offset: 0x25C1E, size: 0x8, addend: 0x0, symName: __ZNKSt3__111__move_loopINS_17_ClassicAlgPolicyEEclB7v160006INS_16reverse_iteratorIPN2sf7Vector2IfEEEES9_S9_EENS_4pairIT_T1_EESB_T0_SC_, symObjAddr: 0x5C30, symBinAddr: 0x100008E00, symSize: 0xA0 }
  - { offsetInCU: 0x25C8F, offset: 0x25C8F, size: 0x8, addend: 0x0, symName: __ZNSt3__18_IterOpsINS_17_ClassicAlgPolicyEE11__iter_moveB7v160006IRNS_16reverse_iteratorIPN2sf7Vector2IfEEEEEENS_9enable_ifIXsr12is_referenceIDTdeclsr3stdE7declvalIRT_EEEEE5valueEDTclsr3stdE4movedeclsr3stdE7declvalISD_EEEEE4typeEOSC_, symObjAddr: 0x5E50, symBinAddr: 0x100009020, symSize: 0x20 }
  - { offsetInCU: 0x25CBB, offset: 0x25CBB, size: 0x8, addend: 0x0, symName: __ZNKSt3__116reverse_iteratorIPN2sf7Vector2IfEEEdeB7v160006Ev, symObjAddr: 0x5E70, symBinAddr: 0x100009040, symSize: 0x30 }
  - { offsetInCU: 0x25CEF, offset: 0x25CEF, size: 0x8, addend: 0x0, symName: __ZNSt3__116reverse_iteratorIPN2sf7Vector2IfEEEppB7v160006Ev, symObjAddr: 0x5EA0, symBinAddr: 0x100009070, symSize: 0x20 }
  - { offsetInCU: 0x25D15, offset: 0x25D15, size: 0x8, addend: 0x0, symName: __ZNSt3__18_IterOpsINS_17_ClassicAlgPolicyEE25__validate_iter_referenceB7v160006IRNS_16reverse_iteratorIPN2sf7Vector2IfEEEEEEvv, symObjAddr: 0x5EC0, symBinAddr: 0x100009090, symSize: 0x10 }
  - { offsetInCU: 0x25D33, offset: 0x25D33, size: 0x8, addend: 0x0, symName: __ZNSt3__118__unwrap_iter_implINS_16reverse_iteratorIPN2sf7Vector2IfEEEELb0EE8__unwrapB7v160006ES6_, symObjAddr: 0x5ED0, symBinAddr: 0x1000090A0, symSize: 0x20 }
  - { offsetInCU: 0x25D5C, offset: 0x25D5C, size: 0x8, addend: 0x0, symName: __ZNSt3__14pairINS_16reverse_iteratorIPN2sf7Vector2IfEEEES6_EC1B7v160006IS6_S6_LPv0EEEOT_OT0_, symObjAddr: 0x5EF0, symBinAddr: 0x1000090C0, symSize: 0x30 }
  - { offsetInCU: 0x25DBA, offset: 0x25DBA, size: 0x8, addend: 0x0, symName: __ZNSt3__14pairINS_16reverse_iteratorIPN2sf7Vector2IfEEEES6_EC2B7v160006IS6_S6_LPv0EEEOT_OT0_, symObjAddr: 0x5F20, symBinAddr: 0x1000090F0, symSize: 0x40 }
  - { offsetInCU: 0x25E18, offset: 0x25E18, size: 0x8, addend: 0x0, symName: __ZNSt3__118__unwrap_iter_implINS_16reverse_iteratorIPN2sf7Vector2IfEEEELb0EE8__rewrapB7v160006ES6_S6_, symObjAddr: 0x5F60, symBinAddr: 0x100009130, symSize: 0x30 }
  - { offsetInCU: 0x25E46, offset: 0x25E46, size: 0x8, addend: 0x0, symName: __ZNSt3__116reverse_iteratorIPN2sf7Vector2IfEEEC2B7v160006ES4_, symObjAddr: 0x5F90, symBinAddr: 0x100009160, symSize: 0x30 }
  - { offsetInCU: 0x25E7E, offset: 0x25E7E, size: 0x8, addend: 0x0, symName: __ZNSt3__114__split_bufferIN2sf7Vector2IfEERNS_9allocatorIS3_EEED2Ev, symObjAddr: 0x5FC0, symBinAddr: 0x100009190, symSize: 0x70 }
  - { offsetInCU: 0x25EAA, offset: 0x25EAA, size: 0x8, addend: 0x0, symName: __ZNSt3__114__split_bufferIN2sf7Vector2IfEERNS_9allocatorIS3_EEE5clearB7v160006Ev, symObjAddr: 0x6030, symBinAddr: 0x100009200, symSize: 0x20 }
  - { offsetInCU: 0x25ED0, offset: 0x25ED0, size: 0x8, addend: 0x0, symName: __ZNSt3__116allocator_traitsINS_9allocatorIN2sf7Vector2IfEEEEE10deallocateB7v160006ERS5_PS4_m, symObjAddr: 0x6050, symBinAddr: 0x100009220, symSize: 0x30 }
  - { offsetInCU: 0x25F12, offset: 0x25F12, size: 0x8, addend: 0x0, symName: __ZNKSt3__114__split_bufferIN2sf7Vector2IfEERNS_9allocatorIS3_EEE8capacityB7v160006Ev, symObjAddr: 0x6080, symBinAddr: 0x100009250, symSize: 0x30 }
  - { offsetInCU: 0x25F38, offset: 0x25F38, size: 0x8, addend: 0x0, symName: __ZNSt3__114__split_bufferIN2sf7Vector2IfEERNS_9allocatorIS3_EEE17__destruct_at_endB7v160006EPS3_, symObjAddr: 0x60B0, symBinAddr: 0x100009280, symSize: 0x30 }
  - { offsetInCU: 0x25F6C, offset: 0x25F6C, size: 0x8, addend: 0x0, symName: __ZNSt3__114__split_bufferIN2sf7Vector2IfEERNS_9allocatorIS3_EEE17__destruct_at_endB7v160006EPS3_NS_17integral_constantIbLb0EEE, symObjAddr: 0x60E0, symBinAddr: 0x1000092B0, symSize: 0x80 }
  - { offsetInCU: 0x25FAD, offset: 0x25FAD, size: 0x8, addend: 0x0, symName: __ZNSt3__116allocator_traitsINS_9allocatorIN2sf7Vector2IfEEEEE7destroyB7v160006IS4_vEEvRS5_PT_, symObjAddr: 0x6160, symBinAddr: 0x100009330, symSize: 0x30 }
  - { offsetInCU: 0x25FEA, offset: 0x25FEA, size: 0x8, addend: 0x0, symName: __ZNSt3__19allocatorIN2sf7Vector2IfEEE7destroyB7v160006EPS3_, symObjAddr: 0x6190, symBinAddr: 0x100009360, symSize: 0x10 }
  - { offsetInCU: 0x2601E, offset: 0x2601E, size: 0x8, addend: 0x0, symName: __ZNSt3__19allocatorIN2sf7Vector2IfEEE10deallocateB7v160006EPS3_m, symObjAddr: 0x61A0, symBinAddr: 0x100009370, symSize: 0x40 }
  - { offsetInCU: 0x26060, offset: 0x26060, size: 0x8, addend: 0x0, symName: __ZNKSt3__114__split_bufferIN2sf7Vector2IfEERNS_9allocatorIS3_EEE9__end_capB7v160006Ev, symObjAddr: 0x61E0, symBinAddr: 0x1000093B0, symSize: 0x20 }
  - { offsetInCU: 0x26086, offset: 0x26086, size: 0x8, addend: 0x0, symName: __ZNKSt3__117__compressed_pairIPN2sf7Vector2IfEERNS_9allocatorIS3_EEE5firstB7v160006Ev, symObjAddr: 0x6200, symBinAddr: 0x1000093D0, symSize: 0x20 }
  - { offsetInCU: 0x260AC, offset: 0x260AC, size: 0x8, addend: 0x0, symName: __ZN2sf15ContextSettingsC2Ejjjjjjb, symObjAddr: 0x6220, symBinAddr: 0x1000093F0, symSize: 0x60 }
  - { offsetInCU: 0x2613E, offset: 0x2613E, size: 0x8, addend: 0x0, symName: __ZN9RectangleaSERKS_, symObjAddr: 0x6280, symBinAddr: 0x100009450, symSize: 0x50 }
  - { offsetInCU: 0x2616F, offset: 0x2616F, size: 0x8, addend: 0x0, symName: __ZNSt3__16vectorIN2sf7Vector2IfEENS_9allocatorIS3_EEEaSB7v160006ERKS6_, symObjAddr: 0x62D0, symBinAddr: 0x1000094A0, symSize: 0x60 }
  - { offsetInCU: 0x261AC, offset: 0x261AC, size: 0x8, addend: 0x0, symName: __ZN2sf11CircleShapeaSERKS0_, symObjAddr: 0x6330, symBinAddr: 0x100009500, symSize: 0x50 }
  - { offsetInCU: 0x261E3, offset: 0x261E3, size: 0x8, addend: 0x0, symName: __ZN2sf14RectangleShapeaSERKS0_, symObjAddr: 0x6380, symBinAddr: 0x100009550, symSize: 0x40 }
  - { offsetInCU: 0x2621A, offset: 0x2621A, size: 0x8, addend: 0x0, symName: __ZN2sf5ShapeaSERKS0_, symObjAddr: 0x63C0, symBinAddr: 0x100009590, symSize: 0xE0 }
  - { offsetInCU: 0x26251, offset: 0x26251, size: 0x8, addend: 0x0, symName: __ZN2sf8DrawableaSERKS0_, symObjAddr: 0x64A0, symBinAddr: 0x100009670, symSize: 0x20 }
  - { offsetInCU: 0x26288, offset: 0x26288, size: 0x8, addend: 0x0, symName: __ZN2sf13TransformableaSERKS0_, symObjAddr: 0x64C0, symBinAddr: 0x100009690, symSize: 0xA0 }
  - { offsetInCU: 0x262BF, offset: 0x262BF, size: 0x8, addend: 0x0, symName: __ZN2sf11VertexArrayaSERKS0_, symObjAddr: 0x6560, symBinAddr: 0x100009730, symSize: 0x50 }
  - { offsetInCU: 0x262F0, offset: 0x262F0, size: 0x8, addend: 0x0, symName: __ZNSt3__16vectorIN2sf6VertexENS_9allocatorIS2_EEEaSB7v160006ERKS5_, symObjAddr: 0x65B0, symBinAddr: 0x100009780, symSize: 0x60 }
  - { offsetInCU: 0x26327, offset: 0x26327, size: 0x8, addend: 0x0, symName: __ZNSt3__16vectorIN2sf6VertexENS_9allocatorIS2_EEE19__copy_assign_allocB7v160006ERKS5_, symObjAddr: 0x6610, symBinAddr: 0x1000097E0, symSize: 0x30 }
  - { offsetInCU: 0x2635C, offset: 0x2635C, size: 0x8, addend: 0x0, symName: __ZNSt3__16vectorIN2sf6VertexENS_9allocatorIS2_EEE6assignIPS2_Li0EEEvT_S8_, symObjAddr: 0x6640, symBinAddr: 0x100009810, symSize: 0x160 }
  - { offsetInCU: 0x263FB, offset: 0x263FB, size: 0x8, addend: 0x0, symName: __ZNSt3__16vectorIN2sf6VertexENS_9allocatorIS2_EEE19__copy_assign_allocB7v160006ERKS5_NS_17integral_constantIbLb0EEE, symObjAddr: 0x67A0, symBinAddr: 0x100009970, symSize: 0x10 }
  - { offsetInCU: 0x26437, offset: 0x26437, size: 0x8, addend: 0x0, symName: __ZNSt3__16vectorIN2sf6VertexENS_9allocatorIS2_EEE17__destruct_at_endB7v160006EPS2_, symObjAddr: 0x6870, symBinAddr: 0x100009A40, symSize: 0x60 }
  - { offsetInCU: 0x2647B, offset: 0x2647B, size: 0x8, addend: 0x0, symName: __ZNSt3__16vectorIN2sf6VertexENS_9allocatorIS2_EEE13__vdeallocateEv, symObjAddr: 0x68D0, symBinAddr: 0x100009AA0, symSize: 0x80 }
  - { offsetInCU: 0x264A3, offset: 0x264A3, size: 0x8, addend: 0x0, symName: __ZNKSt3__16vectorIN2sf6VertexENS_9allocatorIS2_EEE11__recommendB7v160006Em, symObjAddr: 0x6950, symBinAddr: 0x100009B20, symSize: 0xA0 }
  - { offsetInCU: 0x2651E, offset: 0x2651E, size: 0x8, addend: 0x0, symName: __ZNKSt3__114__copy_trivialclB7v160006IN2sf6VertexES3_Li0EEENS_4pairIPT_PT0_EES6_S6_S8_, symObjAddr: 0x6BE0, symBinAddr: 0x100009DB0, symSize: 0x40 }
  - { offsetInCU: 0x2658C, offset: 0x2658C, size: 0x8, addend: 0x0, symName: __ZNSt3__14pairIPN2sf6VertexES3_EC1B7v160006IRS3_S3_LPv0EEEOT_OT0_, symObjAddr: 0x6DA0, symBinAddr: 0x100009F70, symSize: 0x30 }
  - { offsetInCU: 0x265EA, offset: 0x265EA, size: 0x8, addend: 0x0, symName: __ZNSt3__14pairIPN2sf6VertexES3_EC2B7v160006IRS3_S3_LPv0EEEOT_OT0_, symObjAddr: 0x6DD0, symBinAddr: 0x100009FA0, symSize: 0x30 }
  - { offsetInCU: 0x26648, offset: 0x26648, size: 0x8, addend: 0x0, symName: __ZNSt3__118__unwrap_iter_implIPN2sf6VertexELb1EE8__unwrapB7v160006ES3_, symObjAddr: 0x6E00, symBinAddr: 0x100009FD0, symSize: 0x20 }
  - { offsetInCU: 0x2666B, offset: 0x2666B, size: 0x8, addend: 0x0, symName: __ZNSt3__14pairIPN2sf6VertexES3_EC1B7v160006IS3_S3_LPv0EEEOT_OT0_, symObjAddr: 0x6E20, symBinAddr: 0x100009FF0, symSize: 0x30 }
  - { offsetInCU: 0x266C9, offset: 0x266C9, size: 0x8, addend: 0x0, symName: __ZNSt3__14pairIPN2sf6VertexES3_EC2B7v160006IS3_S3_LPv0EEEOT_OT0_, symObjAddr: 0x6E50, symBinAddr: 0x10000A020, symSize: 0x30 }
  - { offsetInCU: 0x26727, offset: 0x26727, size: 0x8, addend: 0x0, symName: __ZNSt3__118__unwrap_iter_implIPN2sf6VertexELb1EE8__rewrapB7v160006ES3_S3_, symObjAddr: 0x6E80, symBinAddr: 0x10000A050, symSize: 0x60 }
  - { offsetInCU: 0x26758, offset: 0x26758, size: 0x8, addend: 0x0, symName: __ZNSt3__16vectorIN2sf6VertexENS_9allocatorIS2_EEE27__invalidate_iterators_pastB7v160006EPS2_, symObjAddr: 0x6EE0, symBinAddr: 0x10000A0B0, symSize: 0x10 }
  - { offsetInCU: 0x2678F, offset: 0x2678F, size: 0x8, addend: 0x0, symName: __ZNKSt3__16vectorIN2sf6VertexENS_9allocatorIS2_EEE17__annotate_shrinkB7v160006Em, symObjAddr: 0x6EF0, symBinAddr: 0x10000A0C0, symSize: 0xA0 }
  - { offsetInCU: 0x267C4, offset: 0x267C4, size: 0x8, addend: 0x0, symName: __ZNSt3__16vectorIN2sf6VertexENS_9allocatorIS2_EEE5clearB7v160006Ev, symObjAddr: 0x6F90, symBinAddr: 0x10000A160, symSize: 0x50 }
  - { offsetInCU: 0x267F9, offset: 0x267F9, size: 0x8, addend: 0x0, symName: __ZNSt3__16vectorIN2sf7Vector2IfEENS_9allocatorIS3_EEE19__copy_assign_allocB7v160006ERKS6_, symObjAddr: 0x6FE0, symBinAddr: 0x10000A1B0, symSize: 0x30 }
  - { offsetInCU: 0x2682E, offset: 0x2682E, size: 0x8, addend: 0x0, symName: __ZNSt3__16vectorIN2sf7Vector2IfEENS_9allocatorIS3_EEE6assignIPS3_Li0EEEvT_S9_, symObjAddr: 0x7010, symBinAddr: 0x10000A1E0, symSize: 0x160 }
  - { offsetInCU: 0x268CD, offset: 0x268CD, size: 0x8, addend: 0x0, symName: __ZNSt3__16vectorIN2sf7Vector2IfEENS_9allocatorIS3_EEE19__copy_assign_allocB7v160006ERKS6_NS_17integral_constantIbLb0EEE, symObjAddr: 0x7170, symBinAddr: 0x10000A340, symSize: 0x10 }
  - { offsetInCU: 0x26909, offset: 0x26909, size: 0x8, addend: 0x0, symName: __ZNSt3__16vectorIN2sf7Vector2IfEENS_9allocatorIS3_EEE18__construct_at_endIPS3_Li0EEEvT_S9_m, symObjAddr: 0x7240, symBinAddr: 0x10000A410, symSize: 0x90 }
  - { offsetInCU: 0x2697C, offset: 0x2697C, size: 0x8, addend: 0x0, symName: __ZNSt3__16vectorIN2sf7Vector2IfEENS_9allocatorIS3_EEE17__destruct_at_endB7v160006EPS3_, symObjAddr: 0x72D0, symBinAddr: 0x10000A4A0, symSize: 0x60 }
  - { offsetInCU: 0x269C0, offset: 0x269C0, size: 0x8, addend: 0x0, symName: __ZNSt3__16vectorIN2sf7Vector2IfEENS_9allocatorIS3_EEE13__vdeallocateEv, symObjAddr: 0x7330, symBinAddr: 0x10000A500, symSize: 0x80 }
  - { offsetInCU: 0x269E8, offset: 0x269E8, size: 0x8, addend: 0x0, symName: __ZNSt3__16vectorIN2sf7Vector2IfEENS_9allocatorIS3_EEE11__vallocateB7v160006Em, symObjAddr: 0x73B0, symBinAddr: 0x10000A580, symSize: 0xA0 }
  - { offsetInCU: 0x26A48, offset: 0x26A48, size: 0x8, addend: 0x0, symName: __ZNKSt3__114__copy_trivialclB7v160006IN2sf7Vector2IfEES4_Li0EEENS_4pairIPT_PT0_EES7_S7_S9_, symObjAddr: 0x7610, symBinAddr: 0x10000A7E0, symSize: 0x40 }
  - { offsetInCU: 0x26AB6, offset: 0x26AB6, size: 0x8, addend: 0x0, symName: __ZNSt3__14pairIPN2sf7Vector2IfEES4_EC1B7v160006IRS4_S4_LPv0EEEOT_OT0_, symObjAddr: 0x77B0, symBinAddr: 0x10000A980, symSize: 0x30 }
  - { offsetInCU: 0x26B14, offset: 0x26B14, size: 0x8, addend: 0x0, symName: __ZNSt3__14pairIPN2sf7Vector2IfEES4_EC2B7v160006IRS4_S4_LPv0EEEOT_OT0_, symObjAddr: 0x77E0, symBinAddr: 0x10000A9B0, symSize: 0x30 }
  - { offsetInCU: 0x26B72, offset: 0x26B72, size: 0x8, addend: 0x0, symName: __ZNSt3__118__unwrap_iter_implIPN2sf7Vector2IfEELb1EE8__unwrapB7v160006ES4_, symObjAddr: 0x7810, symBinAddr: 0x10000A9E0, symSize: 0x20 }
  - { offsetInCU: 0x26B95, offset: 0x26B95, size: 0x8, addend: 0x0, symName: __ZNSt3__14pairIPN2sf7Vector2IfEES4_EC1B7v160006IS4_S4_LPv0EEEOT_OT0_, symObjAddr: 0x7830, symBinAddr: 0x10000AA00, symSize: 0x30 }
  - { offsetInCU: 0x26BF3, offset: 0x26BF3, size: 0x8, addend: 0x0, symName: __ZNSt3__14pairIPN2sf7Vector2IfEES4_EC2B7v160006IS4_S4_LPv0EEEOT_OT0_, symObjAddr: 0x7860, symBinAddr: 0x10000AA30, symSize: 0x30 }
  - { offsetInCU: 0x26C51, offset: 0x26C51, size: 0x8, addend: 0x0, symName: __ZNSt3__118__unwrap_iter_implIPN2sf7Vector2IfEELb1EE8__rewrapB7v160006ES4_S4_, symObjAddr: 0x7890, symBinAddr: 0x10000AA60, symSize: 0x50 }
  - { offsetInCU: 0x26C82, offset: 0x26C82, size: 0x8, addend: 0x0, symName: __ZNSt3__129_AllocatorDestroyRangeReverseINS_9allocatorIN2sf7Vector2IfEEEEPS4_EC1B7v160006ERS5_RS6_S9_, symObjAddr: 0x7A40, symBinAddr: 0x10000AC10, symSize: 0x40 }
  - { offsetInCU: 0x26CD9, offset: 0x26CD9, size: 0x8, addend: 0x0, symName: __ZNSt3__116allocator_traitsINS_9allocatorIN2sf7Vector2IfEEEEE9constructB7v160006IS4_JRS4_EvEEvRS5_PT_DpOT0_, symObjAddr: 0x7A80, symBinAddr: 0x10000AC50, symSize: 0x30 }
  - { offsetInCU: 0x26D30, offset: 0x26D30, size: 0x8, addend: 0x0, symName: __ZNSt3__128__exception_guard_exceptionsINS_29_AllocatorDestroyRangeReverseINS_9allocatorIN2sf7Vector2IfEEEEPS5_EEE10__completeB7v160006Ev, symObjAddr: 0x7AB0, symBinAddr: 0x10000AC80, symSize: 0x20 }
  - { offsetInCU: 0x26D56, offset: 0x26D56, size: 0x8, addend: 0x0, symName: __ZNSt3__128__exception_guard_exceptionsINS_29_AllocatorDestroyRangeReverseINS_9allocatorIN2sf7Vector2IfEEEEPS5_EEED1B7v160006Ev, symObjAddr: 0x7AD0, symBinAddr: 0x10000ACA0, symSize: 0x20 }
  - { offsetInCU: 0x26D80, offset: 0x26D80, size: 0x8, addend: 0x0, symName: __ZNSt3__128__exception_guard_exceptionsINS_29_AllocatorDestroyRangeReverseINS_9allocatorIN2sf7Vector2IfEEEEPS5_EEEC1B7v160006ES8_, symObjAddr: 0x7AF0, symBinAddr: 0x10000ACC0, symSize: 0x40 }
  - { offsetInCU: 0x26DB8, offset: 0x26DB8, size: 0x8, addend: 0x0, symName: __ZNSt3__128__exception_guard_exceptionsINS_29_AllocatorDestroyRangeReverseINS_9allocatorIN2sf7Vector2IfEEEEPS5_EEEC2B7v160006ES8_, symObjAddr: 0x7B30, symBinAddr: 0x10000AD00, symSize: 0x30 }
  - { offsetInCU: 0x26DF0, offset: 0x26DF0, size: 0x8, addend: 0x0, symName: __ZNSt3__129_AllocatorDestroyRangeReverseINS_9allocatorIN2sf7Vector2IfEEEEPS4_EC2B7v160006ERS5_RS6_S9_, symObjAddr: 0x7B60, symBinAddr: 0x10000AD30, symSize: 0x40 }
  - { offsetInCU: 0x26E47, offset: 0x26E47, size: 0x8, addend: 0x0, symName: __ZNSt3__19allocatorIN2sf7Vector2IfEEE9constructB7v160006IS3_JRS3_EEEvPT_DpOT0_, symObjAddr: 0x7BA0, symBinAddr: 0x10000AD70, symSize: 0x20 }
  - { offsetInCU: 0x26E9D, offset: 0x26E9D, size: 0x8, addend: 0x0, symName: __ZNSt3__128__exception_guard_exceptionsINS_29_AllocatorDestroyRangeReverseINS_9allocatorIN2sf7Vector2IfEEEEPS5_EEED2B7v160006Ev, symObjAddr: 0x7BC0, symBinAddr: 0x10000AD90, symSize: 0x40 }
  - { offsetInCU: 0x26EC7, offset: 0x26EC7, size: 0x8, addend: 0x0, symName: __ZNKSt3__129_AllocatorDestroyRangeReverseINS_9allocatorIN2sf7Vector2IfEEEEPS4_EclB7v160006Ev, symObjAddr: 0x7C00, symBinAddr: 0x10000ADD0, symSize: 0x60 }
  - { offsetInCU: 0x26EF3, offset: 0x26EF3, size: 0x8, addend: 0x0, symName: __ZNSt3__119__to_address_helperINS_16reverse_iteratorIPN2sf7Vector2IfEEEEvE6__callB7v160006ERKS6_, symObjAddr: 0x7CF0, symBinAddr: 0x10000AEC0, symSize: 0x40 }
  - { offsetInCU: 0x26F16, offset: 0x26F16, size: 0x8, addend: 0x0, symName: __ZNKSt3__116reverse_iteratorIPN2sf7Vector2IfEEEptB7v160006Ev, symObjAddr: 0x7D30, symBinAddr: 0x10000AF00, symSize: 0x20 }
  - { offsetInCU: 0x26F3C, offset: 0x26F3C, size: 0x8, addend: 0x0, symName: __ZNSt3__16vectorIN2sf7Vector2IfEENS_9allocatorIS3_EEE27__invalidate_iterators_pastB7v160006EPS3_, symObjAddr: 0x7D50, symBinAddr: 0x10000AF20, symSize: 0x10 }
  - { offsetInCU: 0x26F73, offset: 0x26F73, size: 0x8, addend: 0x0, symName: __ZNSt3__16vectorIN2sf7Vector2IfEENS_9allocatorIS3_EEE22__base_destruct_at_endB7v160006EPS3_, symObjAddr: 0x7D60, symBinAddr: 0x10000AF30, symSize: 0x80 }
  - { offsetInCU: 0x26FB7, offset: 0x26FB7, size: 0x8, addend: 0x0, symName: __ZNKSt3__16vectorIN2sf7Vector2IfEENS_9allocatorIS3_EEE17__annotate_shrinkB7v160006Em, symObjAddr: 0x7DE0, symBinAddr: 0x10000AFB0, symSize: 0xA0 }
  - { offsetInCU: 0x26FEC, offset: 0x26FEC, size: 0x8, addend: 0x0, symName: __ZNSt3__16vectorIN2sf7Vector2IfEENS_9allocatorIS3_EEE5clearB7v160006Ev, symObjAddr: 0x7E80, symBinAddr: 0x10000B050, symSize: 0x50 }
  - { offsetInCU: 0x27021, offset: 0x27021, size: 0x8, addend: 0x0, symName: __ZNSt3__16vectorIN2sf7Vector2IfEENS_9allocatorIS3_EEE7__clearB7v160006Ev, symObjAddr: 0x7ED0, symBinAddr: 0x10000B0A0, symSize: 0x20 }
  - { offsetInCU: 0x27047, offset: 0x27047, size: 0x8, addend: 0x0, symName: __ZN8QuadTreeD2Ev, symObjAddr: 0x7EF0, symBinAddr: 0x10000B0C0, symSize: 0xE0 }
  - { offsetInCU: 0x27071, offset: 0x27071, size: 0x8, addend: 0x0, symName: __ZNSt3__16vectorIN2sf7Vector2IfEENS_9allocatorIS3_EEED1B7v160006Ev, symObjAddr: 0x7FD0, symBinAddr: 0x10000B1A0, symSize: 0x20 }
  - { offsetInCU: 0x2709B, offset: 0x2709B, size: 0x8, addend: 0x0, symName: __ZNSt3__16vectorIN2sf7Vector2IfEENS_9allocatorIS3_EEED2B7v160006Ev, symObjAddr: 0x7FF0, symBinAddr: 0x10000B1C0, symSize: 0x40 }
  - { offsetInCU: 0x270C5, offset: 0x270C5, size: 0x8, addend: 0x0, symName: __ZNSt3__16vectorIN2sf7Vector2IfEENS_9allocatorIS3_EEE16__destroy_vectorC1ERS6_, symObjAddr: 0x8030, symBinAddr: 0x10000B200, symSize: 0x30 }
  - { offsetInCU: 0x270FE, offset: 0x270FE, size: 0x8, addend: 0x0, symName: __ZNSt3__16vectorIN2sf7Vector2IfEENS_9allocatorIS3_EEE16__destroy_vectorclB7v160006Ev, symObjAddr: 0x8060, symBinAddr: 0x10000B230, symSize: 0x90 }
  - { offsetInCU: 0x27124, offset: 0x27124, size: 0x8, addend: 0x0, symName: __ZNSt3__16vectorIN2sf7Vector2IfEENS_9allocatorIS3_EEE16__destroy_vectorC2ERS6_, symObjAddr: 0x80F0, symBinAddr: 0x10000B2C0, symSize: 0x20 }
  - { offsetInCU: 0x2715D, offset: 0x2715D, size: 0x8, addend: 0x0, symName: __ZN6CircleC2Efff, symObjAddr: 0x8120, symBinAddr: 0x10000B2F0, symSize: 0x50 }
  - { offsetInCU: 0x271B1, offset: 0x271B1, size: 0x8, addend: 0x0, symName: __ZNK9Rectangle10intersectsERK6Circle, symObjAddr: 0x8170, symBinAddr: 0x10000B340, symSize: 0x180 }
  - { offsetInCU: 0x27248, offset: 0x27248, size: 0x8, addend: 0x0, symName: __ZNSt3__16vectorI5PointNS_9allocatorIS1_EEEC1ERKS4_, symObjAddr: 0x82F0, symBinAddr: 0x10000B4C0, symSize: 0x30 }
  - { offsetInCU: 0x27283, offset: 0x27283, size: 0x8, addend: 0x0, symName: __ZNKSt3__16vectorIN2sf7Vector2IfEENS_9allocatorIS3_EEE5beginB7v160006Ev, symObjAddr: 0x8320, symBinAddr: 0x10000B4F0, symSize: 0x30 }
  - { offsetInCU: 0x272AB, offset: 0x272AB, size: 0x8, addend: 0x0, symName: __ZNKSt3__16vectorIN2sf7Vector2IfEENS_9allocatorIS3_EEE3endB7v160006Ev, symObjAddr: 0x8350, symBinAddr: 0x10000B520, symSize: 0x30 }
  - { offsetInCU: 0x272D3, offset: 0x272D3, size: 0x8, addend: 0x0, symName: __ZNKSt3__111__wrap_iterIPKN2sf7Vector2IfEEEdeB7v160006Ev, symObjAddr: 0x83B0, symBinAddr: 0x10000B580, symSize: 0x20 }
  - { offsetInCU: 0x272F9, offset: 0x272F9, size: 0x8, addend: 0x0, symName: __ZNK6Circle8containsERKN2sf7Vector2IfEE, symObjAddr: 0x83D0, symBinAddr: 0x10000B5A0, symSize: 0x90 }
  - { offsetInCU: 0x2733B, offset: 0x2733B, size: 0x8, addend: 0x0, symName: __ZNSt3__111__wrap_iterIPKN2sf7Vector2IfEEEppB7v160006Ev, symObjAddr: 0x8460, symBinAddr: 0x10000B630, symSize: 0x20 }
  - { offsetInCU: 0x27371, offset: 0x27371, size: 0x8, addend: 0x0, symName: __ZNKSt3__16__lessIffEclB7v160006ERKfS3_, symObjAddr: 0x8530, symBinAddr: 0x10000B700, symSize: 0x30 }
  - { offsetInCU: 0x273B3, offset: 0x273B3, size: 0x8, addend: 0x0, symName: __ZNSt3__16vectorI5PointNS_9allocatorIS1_EEEC2ERKS4_, symObjAddr: 0x85B0, symBinAddr: 0x10000B780, symSize: 0x110 }
  - { offsetInCU: 0x2741E, offset: 0x2741E, size: 0x8, addend: 0x0, symName: __ZNSt3__116allocator_traitsINS_9allocatorI5PointEEE37select_on_container_copy_constructionB7v160006IS3_vvEES3_RKS3_, symObjAddr: 0x86C0, symBinAddr: 0x10000B890, symSize: 0x10 }
  - { offsetInCU: 0x2744D, offset: 0x2744D, size: 0x8, addend: 0x0, symName: __ZNKSt3__16vectorI5PointNS_9allocatorIS1_EEE7__allocB7v160006Ev, symObjAddr: 0x86D0, symBinAddr: 0x10000B8A0, symSize: 0x20 }
  - { offsetInCU: 0x27479, offset: 0x27479, size: 0x8, addend: 0x0, symName: __ZNSt3__117__compressed_pairIP5PointNS_9allocatorIS1_EEEC1B7v160006IDnS4_EEOT_OT0_, symObjAddr: 0x86F0, symBinAddr: 0x10000B8C0, symSize: 0x30 }
  - { offsetInCU: 0x274D1, offset: 0x274D1, size: 0x8, addend: 0x0, symName: __ZNSt3__16vectorI5PointNS_9allocatorIS1_EEE16__destroy_vectorC1ERS4_, symObjAddr: 0x8760, symBinAddr: 0x10000B930, symSize: 0x30 }
  - { offsetInCU: 0x2750A, offset: 0x2750A, size: 0x8, addend: 0x0, symName: __ZNSt3__16vectorI5PointNS_9allocatorIS1_EEE11__vallocateB7v160006Em, symObjAddr: 0x87A0, symBinAddr: 0x10000B970, symSize: 0xA0 }
  - { offsetInCU: 0x2754E, offset: 0x2754E, size: 0x8, addend: 0x0, symName: __ZNSt3__16vectorI5PointNS_9allocatorIS1_EEE18__construct_at_endIPS1_Li0EEEvT_S7_m, symObjAddr: 0x8840, symBinAddr: 0x10000BA10, symSize: 0x90 }
  - { offsetInCU: 0x275C1, offset: 0x275C1, size: 0x8, addend: 0x0, symName: __ZNSt3__128__exception_guard_exceptionsINS_6vectorI5PointNS_9allocatorIS2_EEE16__destroy_vectorEE10__completeB7v160006Ev, symObjAddr: 0x88D0, symBinAddr: 0x10000BAA0, symSize: 0x20 }
  - { offsetInCU: 0x275E7, offset: 0x275E7, size: 0x8, addend: 0x0, symName: __ZNSt3__128__exception_guard_exceptionsINS_6vectorI5PointNS_9allocatorIS2_EEE16__destroy_vectorEED1B7v160006Ev, symObjAddr: 0x88F0, symBinAddr: 0x10000BAC0, symSize: 0x20 }
  - { offsetInCU: 0x27611, offset: 0x27611, size: 0x8, addend: 0x0, symName: __ZNKSt3__117__compressed_pairIP5PointNS_9allocatorIS1_EEE6secondB7v160006Ev, symObjAddr: 0x8910, symBinAddr: 0x10000BAE0, symSize: 0x20 }
  - { offsetInCU: 0x27637, offset: 0x27637, size: 0x8, addend: 0x0, symName: __ZNKSt3__122__compressed_pair_elemINS_9allocatorI5PointEELi1ELb1EE5__getB7v160006Ev, symObjAddr: 0x8930, symBinAddr: 0x10000BB00, symSize: 0x10 }
  - { offsetInCU: 0x2765D, offset: 0x2765D, size: 0x8, addend: 0x0, symName: __ZNSt3__117__compressed_pairIP5PointNS_9allocatorIS1_EEEC2B7v160006IDnS4_EEOT_OT0_, symObjAddr: 0x8940, symBinAddr: 0x10000BB10, symSize: 0x40 }
  - { offsetInCU: 0x276B5, offset: 0x276B5, size: 0x8, addend: 0x0, symName: __ZNSt3__122__compressed_pair_elemIP5PointLi0ELb0EEC2B7v160006IDnvEEOT_, symObjAddr: 0x8980, symBinAddr: 0x10000BB50, symSize: 0x20 }
  - { offsetInCU: 0x276F7, offset: 0x276F7, size: 0x8, addend: 0x0, symName: __ZNSt3__122__compressed_pair_elemINS_9allocatorI5PointEELi1ELb1EEC2B7v160006IS3_vEEOT_, symObjAddr: 0x89A0, symBinAddr: 0x10000BB70, symSize: 0x10 }
  - { offsetInCU: 0x27739, offset: 0x27739, size: 0x8, addend: 0x0, symName: __ZNSt3__128__exception_guard_exceptionsINS_6vectorI5PointNS_9allocatorIS2_EEE16__destroy_vectorEEC1B7v160006ES6_, symObjAddr: 0x89B0, symBinAddr: 0x10000BB80, symSize: 0x30 }
  - { offsetInCU: 0x27771, offset: 0x27771, size: 0x8, addend: 0x0, symName: __ZNSt3__128__exception_guard_exceptionsINS_6vectorI5PointNS_9allocatorIS2_EEE16__destroy_vectorEEC2B7v160006ES6_, symObjAddr: 0x89E0, symBinAddr: 0x10000BBB0, symSize: 0x20 }
  - { offsetInCU: 0x277A9, offset: 0x277A9, size: 0x8, addend: 0x0, symName: __ZNSt3__16vectorI5PointNS_9allocatorIS1_EEE16__destroy_vectorC2ERS4_, symObjAddr: 0x8A00, symBinAddr: 0x10000BBD0, symSize: 0x20 }
  - { offsetInCU: 0x277E2, offset: 0x277E2, size: 0x8, addend: 0x0, symName: __ZNKSt3__16vectorI5PointNS_9allocatorIS1_EEE8max_sizeEv, symObjAddr: 0x8A20, symBinAddr: 0x10000BBF0, symSize: 0x60 }
  - { offsetInCU: 0x2780A, offset: 0x2780A, size: 0x8, addend: 0x0, symName: __ZNKSt3__16vectorI5PointNS_9allocatorIS1_EEE20__throw_length_errorB7v160006Ev, symObjAddr: 0x8A80, symBinAddr: 0x10000BC50, symSize: 0x20 }
  - { offsetInCU: 0x27830, offset: 0x27830, size: 0x8, addend: 0x0, symName: __ZNSt3__16vectorI5PointNS_9allocatorIS1_EEE7__allocB7v160006Ev, symObjAddr: 0x8AE0, symBinAddr: 0x10000BCB0, symSize: 0x20 }
  - { offsetInCU: 0x27856, offset: 0x27856, size: 0x8, addend: 0x0, symName: __ZNSt3__16vectorI5PointNS_9allocatorIS1_EEE9__end_capB7v160006Ev, symObjAddr: 0x8B00, symBinAddr: 0x10000BCD0, symSize: 0x20 }
  - { offsetInCU: 0x2787C, offset: 0x2787C, size: 0x8, addend: 0x0, symName: __ZNKSt3__16vectorI5PointNS_9allocatorIS1_EEE14__annotate_newB7v160006Em, symObjAddr: 0x8B20, symBinAddr: 0x10000BCF0, symSize: 0xB0 }
  - { offsetInCU: 0x278B1, offset: 0x278B1, size: 0x8, addend: 0x0, symName: __ZNSt3__116allocator_traitsINS_9allocatorI5PointEEE8max_sizeB7v160006IS3_vEEmRKS3_, symObjAddr: 0x8BD0, symBinAddr: 0x10000BDA0, symSize: 0x20 }
  - { offsetInCU: 0x278DF, offset: 0x278DF, size: 0x8, addend: 0x0, symName: __ZNKSt3__19allocatorI5PointE8max_sizeB7v160006Ev, symObjAddr: 0x8BF0, symBinAddr: 0x10000BDC0, symSize: 0x20 }
  - { offsetInCU: 0x27905, offset: 0x27905, size: 0x8, addend: 0x0, symName: __ZNSt3__19allocatorI5PointE8allocateB7v160006Em, symObjAddr: 0x8C10, symBinAddr: 0x10000BDE0, symSize: 0x50 }
  - { offsetInCU: 0x27939, offset: 0x27939, size: 0x8, addend: 0x0, symName: __ZNSt3__117__compressed_pairIP5PointNS_9allocatorIS1_EEE6secondB7v160006Ev, symObjAddr: 0x8C60, symBinAddr: 0x10000BE30, symSize: 0x20 }
  - { offsetInCU: 0x2795F, offset: 0x2795F, size: 0x8, addend: 0x0, symName: __ZNSt3__122__compressed_pair_elemINS_9allocatorI5PointEELi1ELb1EE5__getB7v160006Ev, symObjAddr: 0x8C80, symBinAddr: 0x10000BE50, symSize: 0x10 }
  - { offsetInCU: 0x27985, offset: 0x27985, size: 0x8, addend: 0x0, symName: __ZNSt3__117__compressed_pairIP5PointNS_9allocatorIS1_EEE5firstB7v160006Ev, symObjAddr: 0x8C90, symBinAddr: 0x10000BE60, symSize: 0x20 }
  - { offsetInCU: 0x279AB, offset: 0x279AB, size: 0x8, addend: 0x0, symName: __ZNSt3__122__compressed_pair_elemIP5PointLi0ELb0EE5__getB7v160006Ev, symObjAddr: 0x8CB0, symBinAddr: 0x10000BE80, symSize: 0x10 }
  - { offsetInCU: 0x279D1, offset: 0x279D1, size: 0x8, addend: 0x0, symName: __ZNKSt3__16vectorI5PointNS_9allocatorIS1_EEE31__annotate_contiguous_containerB7v160006EPKvS6_S6_S6_, symObjAddr: 0x8CC0, symBinAddr: 0x10000BE90, symSize: 0x20 }
  - { offsetInCU: 0x27A23, offset: 0x27A23, size: 0x8, addend: 0x0, symName: __ZNKSt3__16vectorI5PointNS_9allocatorIS1_EEE4dataB7v160006Ev, symObjAddr: 0x8CE0, symBinAddr: 0x10000BEB0, symSize: 0x20 }
  - { offsetInCU: 0x27A49, offset: 0x27A49, size: 0x8, addend: 0x0, symName: __ZNKSt3__16vectorI5PointNS_9allocatorIS1_EEE8capacityB7v160006Ev, symObjAddr: 0x8D00, symBinAddr: 0x10000BED0, symSize: 0x40 }
  - { offsetInCU: 0x27A6F, offset: 0x27A6F, size: 0x8, addend: 0x0, symName: __ZNKSt3__16vectorI5PointNS_9allocatorIS1_EEE9__end_capB7v160006Ev, symObjAddr: 0x8D50, symBinAddr: 0x10000BF20, symSize: 0x20 }
  - { offsetInCU: 0x27A95, offset: 0x27A95, size: 0x8, addend: 0x0, symName: __ZNKSt3__117__compressed_pairIP5PointNS_9allocatorIS1_EEE5firstB7v160006Ev, symObjAddr: 0x8D70, symBinAddr: 0x10000BF40, symSize: 0x20 }
  - { offsetInCU: 0x27ABB, offset: 0x27ABB, size: 0x8, addend: 0x0, symName: __ZNKSt3__122__compressed_pair_elemIP5PointLi0ELb0EE5__getB7v160006Ev, symObjAddr: 0x8D90, symBinAddr: 0x10000BF60, symSize: 0x10 }
  - { offsetInCU: 0x27AFC, offset: 0x27AFC, size: 0x8, addend: 0x0, symName: __ZNSt3__16vectorI5PointNS_9allocatorIS1_EEE21_ConstructTransactionC1B7v160006ERS4_m, symObjAddr: 0x8DA0, symBinAddr: 0x10000BF70, symSize: 0x30 }
  - { offsetInCU: 0x27B44, offset: 0x27B44, size: 0x8, addend: 0x0, symName: __ZNSt3__16vectorI5PointNS_9allocatorIS1_EEE21_ConstructTransactionD1B7v160006Ev, symObjAddr: 0x8ED0, symBinAddr: 0x10000C0A0, symSize: 0x20 }
  - { offsetInCU: 0x27B6E, offset: 0x27B6E, size: 0x8, addend: 0x0, symName: __ZNSt3__16vectorI5PointNS_9allocatorIS1_EEE21_ConstructTransactionC2B7v160006ERS4_m, symObjAddr: 0x8EF0, symBinAddr: 0x10000C0C0, symSize: 0x40 }
  - { offsetInCU: 0x27BB6, offset: 0x27BB6, size: 0x8, addend: 0x0, symName: __ZNSt3__129_AllocatorDestroyRangeReverseINS_9allocatorI5PointEEPS2_EC1B7v160006ERS3_RS4_S7_, symObjAddr: 0x8F90, symBinAddr: 0x10000C160, symSize: 0x40 }
  - { offsetInCU: 0x27C0D, offset: 0x27C0D, size: 0x8, addend: 0x0, symName: __ZNSt3__116allocator_traitsINS_9allocatorI5PointEEE9constructB7v160006IS2_JRS2_EvEEvRS3_PT_DpOT0_, symObjAddr: 0x8FD0, symBinAddr: 0x10000C1A0, symSize: 0x30 }
  - { offsetInCU: 0x27C64, offset: 0x27C64, size: 0x8, addend: 0x0, symName: __ZNSt3__128__exception_guard_exceptionsINS_29_AllocatorDestroyRangeReverseINS_9allocatorI5PointEEPS3_EEE10__completeB7v160006Ev, symObjAddr: 0x9000, symBinAddr: 0x10000C1D0, symSize: 0x20 }
  - { offsetInCU: 0x27C8A, offset: 0x27C8A, size: 0x8, addend: 0x0, symName: __ZNSt3__128__exception_guard_exceptionsINS_29_AllocatorDestroyRangeReverseINS_9allocatorI5PointEEPS3_EEED1B7v160006Ev, symObjAddr: 0x9020, symBinAddr: 0x10000C1F0, symSize: 0x20 }
  - { offsetInCU: 0x27CB4, offset: 0x27CB4, size: 0x8, addend: 0x0, symName: __ZNSt3__128__exception_guard_exceptionsINS_29_AllocatorDestroyRangeReverseINS_9allocatorI5PointEEPS3_EEEC1B7v160006ES6_, symObjAddr: 0x9040, symBinAddr: 0x10000C210, symSize: 0x40 }
  - { offsetInCU: 0x27CEC, offset: 0x27CEC, size: 0x8, addend: 0x0, symName: __ZNSt3__128__exception_guard_exceptionsINS_29_AllocatorDestroyRangeReverseINS_9allocatorI5PointEEPS3_EEEC2B7v160006ES6_, symObjAddr: 0x9080, symBinAddr: 0x10000C250, symSize: 0x30 }
  - { offsetInCU: 0x27D24, offset: 0x27D24, size: 0x8, addend: 0x0, symName: __ZNSt3__129_AllocatorDestroyRangeReverseINS_9allocatorI5PointEEPS2_EC2B7v160006ERS3_RS4_S7_, symObjAddr: 0x90B0, symBinAddr: 0x10000C280, symSize: 0x40 }
  - { offsetInCU: 0x27D7B, offset: 0x27D7B, size: 0x8, addend: 0x0, symName: __ZNSt3__19allocatorI5PointE9constructB7v160006IS1_JRS1_EEEvPT_DpOT0_, symObjAddr: 0x90F0, symBinAddr: 0x10000C2C0, symSize: 0x30 }
  - { offsetInCU: 0x27DD1, offset: 0x27DD1, size: 0x8, addend: 0x0, symName: __ZNSt3__128__exception_guard_exceptionsINS_29_AllocatorDestroyRangeReverseINS_9allocatorI5PointEEPS3_EEED2B7v160006Ev, symObjAddr: 0x9120, symBinAddr: 0x10000C2F0, symSize: 0x40 }
  - { offsetInCU: 0x27DFB, offset: 0x27DFB, size: 0x8, addend: 0x0, symName: __ZNKSt3__129_AllocatorDestroyRangeReverseINS_9allocatorI5PointEEPS2_EclB7v160006Ev, symObjAddr: 0x9160, symBinAddr: 0x10000C330, symSize: 0x60 }
  - { offsetInCU: 0x27E21, offset: 0x27E21, size: 0x8, addend: 0x0, symName: __ZNSt3__116reverse_iteratorIP5PointEC1B7v160006ES2_, symObjAddr: 0x9230, symBinAddr: 0x10000C400, symSize: 0x30 }
  - { offsetInCU: 0x27E59, offset: 0x27E59, size: 0x8, addend: 0x0, symName: __ZNSt3__116allocator_traitsINS_9allocatorI5PointEEE7destroyB7v160006IS2_vEEvRS3_PT_, symObjAddr: 0x92A0, symBinAddr: 0x10000C470, symSize: 0x30 }
  - { offsetInCU: 0x27E96, offset: 0x27E96, size: 0x8, addend: 0x0, symName: __ZNSt3__116reverse_iteratorIP5PointEppB7v160006Ev, symObjAddr: 0x92F0, symBinAddr: 0x10000C4C0, symSize: 0x20 }
  - { offsetInCU: 0x27EBC, offset: 0x27EBC, size: 0x8, addend: 0x0, symName: __ZNKSt3__116reverse_iteratorIP5PointE4baseB7v160006Ev, symObjAddr: 0x9310, symBinAddr: 0x10000C4E0, symSize: 0x20 }
  - { offsetInCU: 0x27EE2, offset: 0x27EE2, size: 0x8, addend: 0x0, symName: __ZNSt3__19allocatorI5PointE7destroyB7v160006EPS1_, symObjAddr: 0x9330, symBinAddr: 0x10000C500, symSize: 0x20 }
  - { offsetInCU: 0x27F1C, offset: 0x27F1C, size: 0x8, addend: 0x0, symName: __ZNSt3__119__to_address_helperINS_16reverse_iteratorIP5PointEEvE6__callB7v160006ERKS4_, symObjAddr: 0x9350, symBinAddr: 0x10000C520, symSize: 0x40 }
  - { offsetInCU: 0x27F3F, offset: 0x27F3F, size: 0x8, addend: 0x0, symName: __ZNKSt3__116reverse_iteratorIP5PointEptB7v160006Ev, symObjAddr: 0x9390, symBinAddr: 0x10000C560, symSize: 0x20 }
  - { offsetInCU: 0x27F65, offset: 0x27F65, size: 0x8, addend: 0x0, symName: __ZNKSt3__116reverse_iteratorIP5PointEdeB7v160006Ev, symObjAddr: 0x93B0, symBinAddr: 0x10000C580, symSize: 0x30 }
  - { offsetInCU: 0x27F99, offset: 0x27F99, size: 0x8, addend: 0x0, symName: __ZNSt3__116reverse_iteratorIP5PointEC2B7v160006ES2_, symObjAddr: 0x93E0, symBinAddr: 0x10000C5B0, symSize: 0x30 }
  - { offsetInCU: 0x27FD1, offset: 0x27FD1, size: 0x8, addend: 0x0, symName: __ZNSt3__16vectorI5PointNS_9allocatorIS1_EEE21_ConstructTransactionD2B7v160006Ev, symObjAddr: 0x9410, symBinAddr: 0x10000C5E0, symSize: 0x20 }
  - { offsetInCU: 0x27FFB, offset: 0x27FFB, size: 0x8, addend: 0x0, symName: __ZNSt3__128__exception_guard_exceptionsINS_6vectorI5PointNS_9allocatorIS2_EEE16__destroy_vectorEED2B7v160006Ev, symObjAddr: 0x9430, symBinAddr: 0x10000C600, symSize: 0x40 }
  - { offsetInCU: 0x28025, offset: 0x28025, size: 0x8, addend: 0x0, symName: __ZNSt3__16vectorI5PointNS_9allocatorIS1_EEE16__destroy_vectorclB7v160006Ev, symObjAddr: 0x9470, symBinAddr: 0x10000C640, symSize: 0x90 }
  - { offsetInCU: 0x2804B, offset: 0x2804B, size: 0x8, addend: 0x0, symName: __ZNKSt3__16vectorI5PointNS_9allocatorIS1_EEE17__annotate_deleteB7v160006Ev, symObjAddr: 0x9500, symBinAddr: 0x10000C6D0, symSize: 0xC0 }
  - { offsetInCU: 0x28071, offset: 0x28071, size: 0x8, addend: 0x0, symName: __ZNSt3__16vectorI5PointNS_9allocatorIS1_EEE7__clearB7v160006Ev, symObjAddr: 0x95D0, symBinAddr: 0x10000C7A0, symSize: 0x20 }
  - { offsetInCU: 0x28097, offset: 0x28097, size: 0x8, addend: 0x0, symName: __ZNSt3__116allocator_traitsINS_9allocatorI5PointEEE10deallocateB7v160006ERS3_PS2_m, symObjAddr: 0x95F0, symBinAddr: 0x10000C7C0, symSize: 0x30 }
  - { offsetInCU: 0x280D9, offset: 0x280D9, size: 0x8, addend: 0x0, symName: __ZNSt3__16vectorI5PointNS_9allocatorIS1_EEE22__base_destruct_at_endB7v160006EPS1_, symObjAddr: 0x9620, symBinAddr: 0x10000C7F0, symSize: 0x80 }
  - { offsetInCU: 0x2811D, offset: 0x2811D, size: 0x8, addend: 0x0, symName: __ZNSt3__19allocatorI5PointE10deallocateB7v160006EPS1_m, symObjAddr: 0x96A0, symBinAddr: 0x10000C870, symSize: 0x40 }
  - { offsetInCU: 0x2815F, offset: 0x2815F, size: 0x8, addend: 0x0, symName: __ZNKSt3__16vectorIN2sf7Vector2IfEENS_9allocatorIS3_EEE11__make_iterB7v160006EPKS3_, symObjAddr: 0x96E0, symBinAddr: 0x10000C8B0, symSize: 0x30 }
  - { offsetInCU: 0x28194, offset: 0x28194, size: 0x8, addend: 0x0, symName: __ZNSt3__111__wrap_iterIPKN2sf7Vector2IfEEEC1B7v160006EPKvS5_, symObjAddr: 0x9710, symBinAddr: 0x10000C8E0, symSize: 0x30 }
  - { offsetInCU: 0x281DA, offset: 0x281DA, size: 0x8, addend: 0x0, symName: __ZNSt3__111__wrap_iterIPKN2sf7Vector2IfEEEC2B7v160006EPKvS5_, symObjAddr: 0x9740, symBinAddr: 0x10000C910, symSize: 0x20 }
  - { offsetInCU: 0x28220, offset: 0x28220, size: 0x8, addend: 0x0, symName: __ZNKSt3__111__wrap_iterIPKN2sf7Vector2IfEEE4baseB7v160006Ev, symObjAddr: 0x97A0, symBinAddr: 0x10000C970, symSize: 0x20 }
  - { offsetInCU: 0x28246, offset: 0x28246, size: 0x8, addend: 0x0, symName: __ZN5PointC2ERKS_, symObjAddr: 0x97F0, symBinAddr: 0x10000C9C0, symSize: 0x60 }
  - { offsetInCU: 0x2827B, offset: 0x2827B, size: 0x8, addend: 0x0, symName: __ZN2sf4TextD2Ev, symObjAddr: 0x9850, symBinAddr: 0x10000CA20, symSize: 0x80 }
  - { offsetInCU: 0x282A7, offset: 0x282A7, size: 0x8, addend: 0x0, symName: __ZThn8_N2sf4TextD1Ev, symObjAddr: 0x98D0, symBinAddr: 0x10000CAA0, symSize: 0x20 }
  - { offsetInCU: 0x282BD, offset: 0x282BD, size: 0x8, addend: 0x0, symName: __ZNSt3__112basic_stringIcNS_11char_traitsIcEENS_9allocatorIcEEEC2B7v160006IDnEEPKc, symObjAddr: 0x98F0, symBinAddr: 0x10000CAC0, symSize: 0x60 }
  - { offsetInCU: 0x282FB, offset: 0x282FB, size: 0x8, addend: 0x0, symName: __ZNSt3__117__compressed_pairINS_12basic_stringIcNS_11char_traitsIcEENS_9allocatorIcEEE5__repES5_EC1B7v160006INS_18__default_init_tagESA_EEOT_OT0_, symObjAddr: 0x9950, symBinAddr: 0x10000CB20, symSize: 0x30 }
  - { offsetInCU: 0x28353, offset: 0x28353, size: 0x8, addend: 0x0, symName: __ZNSt3__111char_traitsIcE6lengthEPKc, symObjAddr: 0x9980, symBinAddr: 0x10000CB50, symSize: 0x30 }
  - { offsetInCU: 0x28376, offset: 0x28376, size: 0x8, addend: 0x0, symName: __ZNSt3__117__compressed_pairINS_12basic_stringIcNS_11char_traitsIcEENS_9allocatorIcEEE5__repES5_EC2B7v160006INS_18__default_init_tagESA_EEOT_OT0_, symObjAddr: 0x99C0, symBinAddr: 0x10000CB90, symSize: 0x30 }
  - { offsetInCU: 0x283CE, offset: 0x283CE, size: 0x8, addend: 0x0, symName: __ZNSt3__122__compressed_pair_elemINS_12basic_stringIcNS_11char_traitsIcEENS_9allocatorIcEEE5__repELi0ELb0EEC2B7v160006ENS_18__default_init_tagE, symObjAddr: 0x99F0, symBinAddr: 0x10000CBC0, symSize: 0x10 }
  - { offsetInCU: 0x28403, offset: 0x28403, size: 0x8, addend: 0x0, symName: __ZNSt3__122__compressed_pair_elemINS_9allocatorIcEELi1ELb1EEC2B7v160006ENS_18__default_init_tagE, symObjAddr: 0x9A00, symBinAddr: 0x10000CBD0, symSize: 0x20 }
  - { offsetInCU: 0x28438, offset: 0x28438, size: 0x8, addend: 0x0, symName: __ZNSt3__19allocatorIcEC2B7v160006Ev, symObjAddr: 0x9A20, symBinAddr: 0x10000CBF0, symSize: 0x20 }
  - { offsetInCU: 0x28462, offset: 0x28462, size: 0x8, addend: 0x0, symName: __ZNSt3__116__non_trivial_ifILb1ENS_9allocatorIcEEEC2B7v160006Ev, symObjAddr: 0x9A40, symBinAddr: 0x10000CC10, symSize: 0x10 }
  - { offsetInCU: 0x2848C, offset: 0x2848C, size: 0x8, addend: 0x0, symName: __ZNSt3__123mersenne_twister_engineIjLm32ELm624ELm397ELm31ELj2567483615ELm11ELj4294967295ELm7ELj2636928640ELm15ELj4022730752ELm18ELj1812433253EEC2B7v160006Ej, symObjAddr: 0x9A70, symBinAddr: 0x10000CC40, symSize: 0x30 }
  - { offsetInCU: 0x284C4, offset: 0x284C4, size: 0x8, addend: 0x0, symName: __ZNSt3__123mersenne_twister_engineIjLm32ELm624ELm397ELm31ELj2567483615ELm11ELj4294967295ELm7ELj2636928640ELm15ELj4022730752ELm18ELj1812433253EE4seedEj, symObjAddr: 0x9AA0, symBinAddr: 0x10000CC70, symSize: 0xB0 }
  - { offsetInCU: 0x28517, offset: 0x28517, size: 0x8, addend: 0x0, symName: __ZNSt3__123mersenne_twister_engineIjLm32ELm624ELm397ELm31ELj2567483615ELm11ELj4294967295ELm7ELj2636928640ELm15ELj4022730752ELm18ELj1812433253EE8__rshiftB7v160006ILm30EEENS_9enable_ifIXltT_L_ZNS1_3_DtEEEjE4typeEj, symObjAddr: 0x9B50, symBinAddr: 0x10000CD20, symSize: 0x10 }
  - { offsetInCU: 0x28544, offset: 0x28544, size: 0x8, addend: 0x0, symName: __ZNSt3__125uniform_real_distributionIdEC2Edd, symObjAddr: 0x9B60, symBinAddr: 0x10000CD30, symSize: 0x30 }
  - { offsetInCU: 0x2858A, offset: 0x2858A, size: 0x8, addend: 0x0, symName: __ZNSt3__125uniform_real_distributionIdE10param_typeC1B7v160006Edd, symObjAddr: 0x9B90, symBinAddr: 0x10000CD60, symSize: 0x30 }
  - { offsetInCU: 0x285D0, offset: 0x285D0, size: 0x8, addend: 0x0, symName: __ZNSt3__125uniform_real_distributionIdE10param_typeC2B7v160006Edd, symObjAddr: 0x9BC0, symBinAddr: 0x10000CD90, symSize: 0x30 }
  - { offsetInCU: 0x28616, offset: 0x28616, size: 0x8, addend: 0x0, symName: __ZNSt3__125uniform_real_distributionIdEclINS_23mersenne_twister_engineIjLm32ELm624ELm397ELm31ELj2567483615ELm11ELj4294967295ELm7ELj2636928640ELm15ELj4022730752ELm18ELj1812433253EEEEEdRT_RKNS1_10param_typeE, symObjAddr: 0x9BF0, symBinAddr: 0x10000CDC0, symSize: 0x70 }
  - { offsetInCU: 0x28662, offset: 0x28662, size: 0x8, addend: 0x0, symName: __ZNKSt3__125uniform_real_distributionIdE10param_type1bB7v160006Ev, symObjAddr: 0x9C60, symBinAddr: 0x10000CE30, symSize: 0x20 }
  - { offsetInCU: 0x28688, offset: 0x28688, size: 0x8, addend: 0x0, symName: __ZNKSt3__125uniform_real_distributionIdE10param_type1aB7v160006Ev, symObjAddr: 0x9C80, symBinAddr: 0x10000CE50, symSize: 0x20 }
  - { offsetInCU: 0x286AE, offset: 0x286AE, size: 0x8, addend: 0x0, symName: __ZNSt3__123mersenne_twister_engineIjLm32ELm624ELm397ELm31ELj2567483615ELm11ELj4294967295ELm7ELj2636928640ELm15ELj4022730752ELm18ELj1812433253EE3maxB7v160006Ev, symObjAddr: 0x9DA0, symBinAddr: 0x10000CF70, symSize: 0x10 }
  - { offsetInCU: 0x286C2, offset: 0x286C2, size: 0x8, addend: 0x0, symName: __ZNSt3__123mersenne_twister_engineIjLm32ELm624ELm397ELm31ELj2567483615ELm11ELj4294967295ELm7ELj2636928640ELm15ELj4022730752ELm18ELj1812433253EE3minB7v160006Ev, symObjAddr: 0x9DB0, symBinAddr: 0x10000CF80, symSize: 0x10 }
  - { offsetInCU: 0x286D6, offset: 0x286D6, size: 0x8, addend: 0x0, symName: __ZNSt3__123mersenne_twister_engineIjLm32ELm624ELm397ELm31ELj2567483615ELm11ELj4294967295ELm7ELj2636928640ELm15ELj4022730752ELm18ELj1812433253EEclEv, symObjAddr: 0x9DC0, symBinAddr: 0x10000CF90, symSize: 0x130 }
  - { offsetInCU: 0x28749, offset: 0x28749, size: 0x8, addend: 0x0, symName: __ZNSt3__123mersenne_twister_engineIjLm32ELm624ELm397ELm31ELj2567483615ELm11ELj4294967295ELm7ELj2636928640ELm15ELj4022730752ELm18ELj1812433253EE8__rshiftB7v160006ILm1EEENS_9enable_ifIXltT_L_ZNS1_3_DtEEEjE4typeEj, symObjAddr: 0x9EF0, symBinAddr: 0x10000D0C0, symSize: 0x10 }
  - { offsetInCU: 0x28776, offset: 0x28776, size: 0x8, addend: 0x0, symName: __ZNSt3__123mersenne_twister_engineIjLm32ELm624ELm397ELm31ELj2567483615ELm11ELj4294967295ELm7ELj2636928640ELm15ELj4022730752ELm18ELj1812433253EE8__rshiftB7v160006ILm11EEENS_9enable_ifIXltT_L_ZNS1_3_DtEEEjE4typeEj, symObjAddr: 0x9F00, symBinAddr: 0x10000D0D0, symSize: 0x10 }
  - { offsetInCU: 0x287A3, offset: 0x287A3, size: 0x8, addend: 0x0, symName: __ZNSt3__123mersenne_twister_engineIjLm32ELm624ELm397ELm31ELj2567483615ELm11ELj4294967295ELm7ELj2636928640ELm15ELj4022730752ELm18ELj1812433253EE8__lshiftB7v160006ILm7EEENS_9enable_ifIXltT_Lm32EEjE4typeEj, symObjAddr: 0x9F10, symBinAddr: 0x10000D0E0, symSize: 0x20 }
  - { offsetInCU: 0x287D0, offset: 0x287D0, size: 0x8, addend: 0x0, symName: __ZNSt3__123mersenne_twister_engineIjLm32ELm624ELm397ELm31ELj2567483615ELm11ELj4294967295ELm7ELj2636928640ELm15ELj4022730752ELm18ELj1812433253EE8__lshiftB7v160006ILm15EEENS_9enable_ifIXltT_Lm32EEjE4typeEj, symObjAddr: 0x9F30, symBinAddr: 0x10000D100, symSize: 0x20 }
  - { offsetInCU: 0x287FD, offset: 0x287FD, size: 0x8, addend: 0x0, symName: __ZNSt3__123mersenne_twister_engineIjLm32ELm624ELm397ELm31ELj2567483615ELm11ELj4294967295ELm7ELj2636928640ELm15ELj4022730752ELm18ELj1812433253EE8__rshiftB7v160006ILm18EEENS_9enable_ifIXltT_L_ZNS1_3_DtEEEjE4typeEj, symObjAddr: 0x9F50, symBinAddr: 0x10000D120, symSize: 0x10 }
  - { offsetInCU: 0x2882A, offset: 0x2882A, size: 0x8, addend: 0x0, symName: __ZN2sf7Vector2IfEC2Eff, symObjAddr: 0x9F60, symBinAddr: 0x10000D130, symSize: 0x30 }
  - { offsetInCU: 0x28878, offset: 0x28878, size: 0x8, addend: 0x0, symName: __ZNSt3__16vectorI5PointNS_9allocatorIS1_EEE22__construct_one_at_endB7v160006IJS1_EEEvDpOT_, symObjAddr: 0x9F90, symBinAddr: 0x10000D160, symSize: 0x90 }
  - { offsetInCU: 0x288C7, offset: 0x288C7, size: 0x8, addend: 0x0, symName: __ZNSt3__16vectorI5PointNS_9allocatorIS1_EEE21__push_back_slow_pathIS1_EEvOT_, symObjAddr: 0xA020, symBinAddr: 0x10000D1F0, symSize: 0xD0 }
  - { offsetInCU: 0x28925, offset: 0x28925, size: 0x8, addend: 0x0, symName: __ZNSt3__116allocator_traitsINS_9allocatorI5PointEEE9constructB7v160006IS2_JS2_EvEEvRS3_PT_DpOT0_, symObjAddr: 0xA0F0, symBinAddr: 0x10000D2C0, symSize: 0x30 }
  - { offsetInCU: 0x2897C, offset: 0x2897C, size: 0x8, addend: 0x0, symName: __ZNSt3__19allocatorI5PointE9constructB7v160006IS1_JS1_EEEvPT_DpOT0_, symObjAddr: 0xA120, symBinAddr: 0x10000D2F0, symSize: 0x30 }
  - { offsetInCU: 0x289D2, offset: 0x289D2, size: 0x8, addend: 0x0, symName: __ZN5PointC1EOS_, symObjAddr: 0xA150, symBinAddr: 0x10000D320, symSize: 0x30 }
  - { offsetInCU: 0x28A07, offset: 0x28A07, size: 0x8, addend: 0x0, symName: __ZN5PointC2EOS_, symObjAddr: 0xA180, symBinAddr: 0x10000D350, symSize: 0x60 }
  - { offsetInCU: 0x28A42, offset: 0x28A42, size: 0x8, addend: 0x0, symName: __ZN2sf11CircleShapeC1EOS0_, symObjAddr: 0xA1E0, symBinAddr: 0x10000D3B0, symSize: 0x30 }
  - { offsetInCU: 0x28A77, offset: 0x28A77, size: 0x8, addend: 0x0, symName: __ZN2sf11CircleShapeC2EOS0_, symObjAddr: 0xA210, symBinAddr: 0x10000D3E0, symSize: 0x70 }
  - { offsetInCU: 0x28AAC, offset: 0x28AAC, size: 0x8, addend: 0x0, symName: __ZNKSt3__16vectorI5PointNS_9allocatorIS1_EEE11__recommendB7v160006Em, symObjAddr: 0xA280, symBinAddr: 0x10000D450, symSize: 0xA0 }
  - { offsetInCU: 0x28B01, offset: 0x28B01, size: 0x8, addend: 0x0, symName: __ZNSt3__114__split_bufferI5PointRNS_9allocatorIS1_EEEC1EmmS4_, symObjAddr: 0xA320, symBinAddr: 0x10000D4F0, symSize: 0x40 }
  - { offsetInCU: 0x28B57, offset: 0x28B57, size: 0x8, addend: 0x0, symName: __ZNSt3__114__split_bufferI5PointRNS_9allocatorIS1_EEED1Ev, symObjAddr: 0xA490, symBinAddr: 0x10000D660, symSize: 0x20 }
  - { offsetInCU: 0x28B83, offset: 0x28B83, size: 0x8, addend: 0x0, symName: __ZNSt3__114__split_bufferI5PointRNS_9allocatorIS1_EEEC2EmmS4_, symObjAddr: 0xA4B0, symBinAddr: 0x10000D680, symSize: 0xD0 }
  - { offsetInCU: 0x28BF6, offset: 0x28BF6, size: 0x8, addend: 0x0, symName: __ZNSt3__117__compressed_pairIP5PointRNS_9allocatorIS1_EEEC1B7v160006IDnS5_EEOT_OT0_, symObjAddr: 0xA580, symBinAddr: 0x10000D750, symSize: 0x30 }
  - { offsetInCU: 0x28C4E, offset: 0x28C4E, size: 0x8, addend: 0x0, symName: __ZNSt3__114__split_bufferI5PointRNS_9allocatorIS1_EEE7__allocB7v160006Ev, symObjAddr: 0xA5B0, symBinAddr: 0x10000D780, symSize: 0x20 }
  - { offsetInCU: 0x28C74, offset: 0x28C74, size: 0x8, addend: 0x0, symName: __ZNSt3__114__split_bufferI5PointRNS_9allocatorIS1_EEE9__end_capB7v160006Ev, symObjAddr: 0xA5D0, symBinAddr: 0x10000D7A0, symSize: 0x20 }
  - { offsetInCU: 0x28C9A, offset: 0x28C9A, size: 0x8, addend: 0x0, symName: __ZNSt3__117__compressed_pairIP5PointRNS_9allocatorIS1_EEEC2B7v160006IDnS5_EEOT_OT0_, symObjAddr: 0xA5F0, symBinAddr: 0x10000D7C0, symSize: 0x40 }
  - { offsetInCU: 0x28CF2, offset: 0x28CF2, size: 0x8, addend: 0x0, symName: __ZNSt3__122__compressed_pair_elemIRNS_9allocatorI5PointEELi1ELb0EEC2B7v160006IS4_vEEOT_, symObjAddr: 0xA630, symBinAddr: 0x10000D800, symSize: 0x20 }
  - { offsetInCU: 0x28D34, offset: 0x28D34, size: 0x8, addend: 0x0, symName: __ZNSt3__117__compressed_pairIP5PointRNS_9allocatorIS1_EEE6secondB7v160006Ev, symObjAddr: 0xA650, symBinAddr: 0x10000D820, symSize: 0x20 }
  - { offsetInCU: 0x28D5A, offset: 0x28D5A, size: 0x8, addend: 0x0, symName: __ZNSt3__122__compressed_pair_elemIRNS_9allocatorI5PointEELi1ELb0EE5__getB7v160006Ev, symObjAddr: 0xA670, symBinAddr: 0x10000D840, symSize: 0x20 }
  - { offsetInCU: 0x28D80, offset: 0x28D80, size: 0x8, addend: 0x0, symName: __ZNSt3__117__compressed_pairIP5PointRNS_9allocatorIS1_EEE5firstB7v160006Ev, symObjAddr: 0xA690, symBinAddr: 0x10000D860, symSize: 0x20 }
  - { offsetInCU: 0x28DA6, offset: 0x28DA6, size: 0x8, addend: 0x0, symName: __ZNSt3__129_AllocatorDestroyRangeReverseINS_9allocatorI5PointEENS_16reverse_iteratorIPS2_EEEC1B7v160006ERS3_RS6_S9_, symObjAddr: 0xA8D0, symBinAddr: 0x10000DAA0, symSize: 0x40 }
  - { offsetInCU: 0x28DFD, offset: 0x28DFD, size: 0x8, addend: 0x0, symName: __ZNSt3__116allocator_traitsINS_9allocatorI5PointEEE9constructB7v160006IS2_JRKS2_EvEEvRS3_PT_DpOT0_, symObjAddr: 0xA910, symBinAddr: 0x10000DAE0, symSize: 0x30 }
  - { offsetInCU: 0x28E54, offset: 0x28E54, size: 0x8, addend: 0x0, symName: __ZNSt3__128__exception_guard_exceptionsINS_29_AllocatorDestroyRangeReverseINS_9allocatorI5PointEENS_16reverse_iteratorIPS3_EEEEE10__completeB7v160006Ev, symObjAddr: 0xA940, symBinAddr: 0x10000DB10, symSize: 0x20 }
  - { offsetInCU: 0x28E7A, offset: 0x28E7A, size: 0x8, addend: 0x0, symName: __ZNSt3__128__exception_guard_exceptionsINS_29_AllocatorDestroyRangeReverseINS_9allocatorI5PointEENS_16reverse_iteratorIPS3_EEEEED1B7v160006Ev, symObjAddr: 0xA960, symBinAddr: 0x10000DB30, symSize: 0x20 }
  - { offsetInCU: 0x28EA4, offset: 0x28EA4, size: 0x8, addend: 0x0, symName: __ZNSt3__128__exception_guard_exceptionsINS_29_AllocatorDestroyRangeReverseINS_9allocatorI5PointEENS_16reverse_iteratorIPS3_EEEEEC1B7v160006ES8_, symObjAddr: 0xA980, symBinAddr: 0x10000DB50, symSize: 0x40 }
  - { offsetInCU: 0x28EDC, offset: 0x28EDC, size: 0x8, addend: 0x0, symName: __ZNSt3__128__exception_guard_exceptionsINS_29_AllocatorDestroyRangeReverseINS_9allocatorI5PointEENS_16reverse_iteratorIPS3_EEEEEC2B7v160006ES8_, symObjAddr: 0xA9C0, symBinAddr: 0x10000DB90, symSize: 0x30 }
  - { offsetInCU: 0x28F14, offset: 0x28F14, size: 0x8, addend: 0x0, symName: __ZNSt3__129_AllocatorDestroyRangeReverseINS_9allocatorI5PointEENS_16reverse_iteratorIPS2_EEEC2B7v160006ERS3_RS6_S9_, symObjAddr: 0xA9F0, symBinAddr: 0x10000DBC0, symSize: 0x40 }
  - { offsetInCU: 0x28F6B, offset: 0x28F6B, size: 0x8, addend: 0x0, symName: __ZNSt3__19allocatorI5PointE9constructB7v160006IS1_JRKS1_EEEvPT_DpOT0_, symObjAddr: 0xAA30, symBinAddr: 0x10000DC00, symSize: 0x30 }
  - { offsetInCU: 0x28FC1, offset: 0x28FC1, size: 0x8, addend: 0x0, symName: __ZNSt3__128__exception_guard_exceptionsINS_29_AllocatorDestroyRangeReverseINS_9allocatorI5PointEENS_16reverse_iteratorIPS3_EEEEED2B7v160006Ev, symObjAddr: 0xAA60, symBinAddr: 0x10000DC30, symSize: 0x40 }
  - { offsetInCU: 0x28FEB, offset: 0x28FEB, size: 0x8, addend: 0x0, symName: __ZNKSt3__129_AllocatorDestroyRangeReverseINS_9allocatorI5PointEENS_16reverse_iteratorIPS2_EEEclB7v160006Ev, symObjAddr: 0xAAA0, symBinAddr: 0x10000DC70, symSize: 0xF0 }
  - { offsetInCU: 0x29012, offset: 0x29012, size: 0x8, addend: 0x0, symName: __ZNSt3__116reverse_iteratorINS0_IP5PointEEEC1B7v160006ES3_, symObjAddr: 0xAC00, symBinAddr: 0x10000DDD0, symSize: 0x30 }
  - { offsetInCU: 0x2904A, offset: 0x2904A, size: 0x8, addend: 0x0, symName: __ZNSt3__116reverse_iteratorINS0_IP5PointEEEppB7v160006Ev, symObjAddr: 0xACA0, symBinAddr: 0x10000DE70, symSize: 0x30 }
  - { offsetInCU: 0x29070, offset: 0x29070, size: 0x8, addend: 0x0, symName: __ZNKSt3__116reverse_iteratorINS0_IP5PointEEE4baseB7v160006Ev, symObjAddr: 0xACD0, symBinAddr: 0x10000DEA0, symSize: 0x20 }
  - { offsetInCU: 0x2909C, offset: 0x2909C, size: 0x8, addend: 0x0, symName: __ZNSt3__119__to_address_helperINS_16reverse_iteratorINS1_IP5PointEEEEvE6__callB7v160006ERKS5_, symObjAddr: 0xACF0, symBinAddr: 0x10000DEC0, symSize: 0x40 }
  - { offsetInCU: 0x290BF, offset: 0x290BF, size: 0x8, addend: 0x0, symName: __ZNKSt3__116reverse_iteratorINS0_IP5PointEEEptB7v160006Ev, symObjAddr: 0xAD30, symBinAddr: 0x10000DF00, symSize: 0x20 }
  - { offsetInCU: 0x290E5, offset: 0x290E5, size: 0x8, addend: 0x0, symName: __ZNKSt3__116reverse_iteratorINS0_IP5PointEEEdeB7v160006Ev, symObjAddr: 0xAD50, symBinAddr: 0x10000DF20, symSize: 0x40 }
  - { offsetInCU: 0x29119, offset: 0x29119, size: 0x8, addend: 0x0, symName: __ZNSt3__116reverse_iteratorIP5PointEmmB7v160006Ev, symObjAddr: 0xAD90, symBinAddr: 0x10000DF60, symSize: 0x20 }
  - { offsetInCU: 0x2913F, offset: 0x2913F, size: 0x8, addend: 0x0, symName: __ZNSt3__116reverse_iteratorINS0_IP5PointEEEC2B7v160006ES3_, symObjAddr: 0xADB0, symBinAddr: 0x10000DF80, symSize: 0x40 }
  - { offsetInCU: 0x29177, offset: 0x29177, size: 0x8, addend: 0x0, symName: __ZNSt3__114__split_bufferI5PointRNS_9allocatorIS1_EEED2Ev, symObjAddr: 0xADF0, symBinAddr: 0x10000DFC0, symSize: 0x70 }
  - { offsetInCU: 0x291A3, offset: 0x291A3, size: 0x8, addend: 0x0, symName: __ZNSt3__114__split_bufferI5PointRNS_9allocatorIS1_EEE5clearB7v160006Ev, symObjAddr: 0xAE60, symBinAddr: 0x10000E030, symSize: 0x20 }
  - { offsetInCU: 0x291C9, offset: 0x291C9, size: 0x8, addend: 0x0, symName: __ZNKSt3__114__split_bufferI5PointRNS_9allocatorIS1_EEE8capacityB7v160006Ev, symObjAddr: 0xAE80, symBinAddr: 0x10000E050, symSize: 0x40 }
  - { offsetInCU: 0x291EF, offset: 0x291EF, size: 0x8, addend: 0x0, symName: __ZNSt3__114__split_bufferI5PointRNS_9allocatorIS1_EEE17__destruct_at_endB7v160006EPS1_, symObjAddr: 0xAEC0, symBinAddr: 0x10000E090, symSize: 0x30 }
  - { offsetInCU: 0x29223, offset: 0x29223, size: 0x8, addend: 0x0, symName: __ZNSt3__114__split_bufferI5PointRNS_9allocatorIS1_EEE17__destruct_at_endB7v160006EPS1_NS_17integral_constantIbLb0EEE, symObjAddr: 0xAEF0, symBinAddr: 0x10000E0C0, symSize: 0x80 }
  - { offsetInCU: 0x29264, offset: 0x29264, size: 0x8, addend: 0x0, symName: __ZNKSt3__114__split_bufferI5PointRNS_9allocatorIS1_EEE9__end_capB7v160006Ev, symObjAddr: 0xAF70, symBinAddr: 0x10000E140, symSize: 0x20 }
  - { offsetInCU: 0x2928A, offset: 0x2928A, size: 0x8, addend: 0x0, symName: __ZNKSt3__117__compressed_pairIP5PointRNS_9allocatorIS1_EEE5firstB7v160006Ev, symObjAddr: 0xAF90, symBinAddr: 0x10000E160, symSize: 0x20 }
  - { offsetInCU: 0x292B0, offset: 0x292B0, size: 0x8, addend: 0x0, symName: __ZNSt3__16vectorI5PointNS_9allocatorIS1_EEED2B7v160006Ev, symObjAddr: 0xAFB0, symBinAddr: 0x10000E180, symSize: 0x40 }
  - { offsetInCU: 0x292DA, offset: 0x292DA, size: 0x8, addend: 0x0, symName: __ZNSt3__124uniform_int_distributionIiEC2Eii, symObjAddr: 0xAFF0, symBinAddr: 0x10000E1C0, symSize: 0x30 }
  - { offsetInCU: 0x29320, offset: 0x29320, size: 0x8, addend: 0x0, symName: __ZNSt3__124uniform_int_distributionIiE10param_typeC1Eii, symObjAddr: 0xB020, symBinAddr: 0x10000E1F0, symSize: 0x30 }
  - { offsetInCU: 0x29366, offset: 0x29366, size: 0x8, addend: 0x0, symName: __ZNSt3__124uniform_int_distributionIiE10param_typeC2Eii, symObjAddr: 0xB050, symBinAddr: 0x10000E220, symSize: 0x20 }
  - { offsetInCU: 0x293AC, offset: 0x293AC, size: 0x8, addend: 0x0, symName: __ZNKSt3__124uniform_int_distributionIiE10param_type1bEv, symObjAddr: 0xB1C0, symBinAddr: 0x10000E390, symSize: 0x20 }
  - { offsetInCU: 0x293D2, offset: 0x293D2, size: 0x8, addend: 0x0, symName: __ZNKSt3__124uniform_int_distributionIiE10param_type1aEv, symObjAddr: 0xB1E0, symBinAddr: 0x10000E3B0, symSize: 0x10 }
  - { offsetInCU: 0x293F8, offset: 0x293F8, size: 0x8, addend: 0x0, symName: __ZNSt3__125__independent_bits_engineINS_23mersenne_twister_engineIjLm32ELm624ELm397ELm31ELj2567483615ELm11ELj4294967295ELm7ELj2636928640ELm15ELj4022730752ELm18ELj1812433253EEEjEC1ERS2_m, symObjAddr: 0xB1F0, symBinAddr: 0x10000E3C0, symSize: 0x30 }
  - { offsetInCU: 0x2943F, offset: 0x2943F, size: 0x8, addend: 0x0, symName: __ZNSt3__125__independent_bits_engineINS_23mersenne_twister_engineIjLm32ELm624ELm397ELm31ELj2567483615ELm11ELj4294967295ELm7ELj2636928640ELm15ELj4022730752ELm18ELj1812433253EEEjEclEv, symObjAddr: 0xB220, symBinAddr: 0x10000E3F0, symSize: 0x20 }
  - { offsetInCU: 0x29465, offset: 0x29465, size: 0x8, addend: 0x0, symName: __ZNSt3__114numeric_limitsIjE3maxB7v160006Ev, symObjAddr: 0xB280, symBinAddr: 0x10000E450, symSize: 0x10 }
  - { offsetInCU: 0x29479, offset: 0x29479, size: 0x8, addend: 0x0, symName: __ZNSt3__125__independent_bits_engineINS_23mersenne_twister_engineIjLm32ELm624ELm397ELm31ELj2567483615ELm11ELj4294967295ELm7ELj2636928640ELm15ELj4022730752ELm18ELj1812433253EEEjEC2ERS2_m, symObjAddr: 0xB290, symBinAddr: 0x10000E460, symSize: 0x1D0 }
  - { offsetInCU: 0x294C0, offset: 0x294C0, size: 0x8, addend: 0x0, symName: __ZNSt3__125__independent_bits_engineINS_23mersenne_twister_engineIjLm32ELm624ELm397ELm31ELj2567483615ELm11ELj4294967295ELm7ELj2636928640ELm15ELj4022730752ELm18ELj1812433253EEEjE6__evalENS_17integral_constantIbLb0EEE, symObjAddr: 0xB460, symBinAddr: 0x10000E630, symSize: 0x30 }
  - { offsetInCU: 0x294F2, offset: 0x294F2, size: 0x8, addend: 0x0, symName: __ZNSt3__123__libcpp_numeric_limitsIjLb1EE3maxB7v160006Ev, symObjAddr: 0xB4B0, symBinAddr: 0x10000E680, symSize: 0x10 }
  - { offsetInCU: 0x29527, offset: 0x29527, size: 0x8, addend: 0x0, symName: __ZNKSt3__113basic_ostreamIcNS_11char_traitsIcEEE6sentrycvbB7v160006Ev, symObjAddr: 0xB6B0, symBinAddr: 0x10000E880, symSize: 0x20 }
  - { offsetInCU: 0x2954D, offset: 0x2954D, size: 0x8, addend: 0x0, symName: __ZNSt3__119ostreambuf_iteratorIcNS_11char_traitsIcEEEC1B7v160006ERNS_13basic_ostreamIcS2_EE, symObjAddr: 0xB8F0, symBinAddr: 0x10000EAC0, symSize: 0x30 }
  - { offsetInCU: 0x29585, offset: 0x29585, size: 0x8, addend: 0x0, symName: __ZNKSt3__18ios_base5flagsB7v160006Ev, symObjAddr: 0xB920, symBinAddr: 0x10000EAF0, symSize: 0x20 }
  - { offsetInCU: 0x295AD, offset: 0x295AD, size: 0x8, addend: 0x0, symName: __ZNKSt3__19basic_iosIcNS_11char_traitsIcEEE4fillB7v160006Ev, symObjAddr: 0xB940, symBinAddr: 0x10000EB10, symSize: 0x70 }
  - { offsetInCU: 0x295D5, offset: 0x295D5, size: 0x8, addend: 0x0, symName: __ZNKSt3__119ostreambuf_iteratorIcNS_11char_traitsIcEEE6failedB7v160006Ev, symObjAddr: 0xB9B0, symBinAddr: 0x10000EB80, symSize: 0x20 }
  - { offsetInCU: 0x295FB, offset: 0x295FB, size: 0x8, addend: 0x0, symName: __ZNSt3__19basic_iosIcNS_11char_traitsIcEEE8setstateB7v160006Ej, symObjAddr: 0xB9D0, symBinAddr: 0x10000EBA0, symSize: 0x30 }
  - { offsetInCU: 0x29630, offset: 0x29630, size: 0x8, addend: 0x0, symName: __ZNKSt3__18ios_base5widthB7v160006Ev, symObjAddr: 0xBA00, symBinAddr: 0x10000EBD0, symSize: 0x20 }
  - { offsetInCU: 0x29658, offset: 0x29658, size: 0x8, addend: 0x0, symName: __ZNSt3__115basic_streambufIcNS_11char_traitsIcEEE5sputnB7v160006EPKcl, symObjAddr: 0xBA20, symBinAddr: 0x10000EBF0, symSize: 0x30 }
  - { offsetInCU: 0x2969A, offset: 0x2969A, size: 0x8, addend: 0x0, symName: __ZNSt3__112basic_stringIcNS_11char_traitsIcEENS_9allocatorIcEEEC1B7v160006Emc, symObjAddr: 0xBA50, symBinAddr: 0x10000EC20, symSize: 0x30 }
  - { offsetInCU: 0x296E2, offset: 0x296E2, size: 0x8, addend: 0x0, symName: __ZNSt3__112basic_stringIcNS_11char_traitsIcEENS_9allocatorIcEEE4dataB7v160006Ev, symObjAddr: 0xBA80, symBinAddr: 0x10000EC50, symSize: 0x30 }
  - { offsetInCU: 0x29708, offset: 0x29708, size: 0x8, addend: 0x0, symName: __ZNSt3__18ios_base5widthB7v160006El, symObjAddr: 0xBAB0, symBinAddr: 0x10000EC80, symSize: 0x30 }
  - { offsetInCU: 0x2974E, offset: 0x2974E, size: 0x8, addend: 0x0, symName: __ZNSt3__112basic_stringIcNS_11char_traitsIcEENS_9allocatorIcEEEC2B7v160006Emc, symObjAddr: 0xBAE0, symBinAddr: 0x10000ECB0, symSize: 0x50 }
  - { offsetInCU: 0x29796, offset: 0x29796, size: 0x8, addend: 0x0, symName: __ZNSt3__112basic_stringIcNS_11char_traitsIcEENS_9allocatorIcEEE13__get_pointerB7v160006Ev, symObjAddr: 0xBB40, symBinAddr: 0x10000ED10, symSize: 0x50 }
  - { offsetInCU: 0x297BC, offset: 0x297BC, size: 0x8, addend: 0x0, symName: __ZNKSt3__112basic_stringIcNS_11char_traitsIcEENS_9allocatorIcEEE9__is_longB7v160006Ev, symObjAddr: 0xBB90, symBinAddr: 0x10000ED60, symSize: 0x30 }
  - { offsetInCU: 0x297E2, offset: 0x297E2, size: 0x8, addend: 0x0, symName: __ZNSt3__112basic_stringIcNS_11char_traitsIcEENS_9allocatorIcEEE18__get_long_pointerB7v160006Ev, symObjAddr: 0xBBC0, symBinAddr: 0x10000ED90, symSize: 0x20 }
  - { offsetInCU: 0x29808, offset: 0x29808, size: 0x8, addend: 0x0, symName: __ZNSt3__112basic_stringIcNS_11char_traitsIcEENS_9allocatorIcEEE19__get_short_pointerB7v160006Ev, symObjAddr: 0xBBE0, symBinAddr: 0x10000EDB0, symSize: 0x30 }
  - { offsetInCU: 0x2982E, offset: 0x2982E, size: 0x8, addend: 0x0, symName: __ZNKSt3__117__compressed_pairINS_12basic_stringIcNS_11char_traitsIcEENS_9allocatorIcEEE5__repES5_E5firstB7v160006Ev, symObjAddr: 0xBC10, symBinAddr: 0x10000EDE0, symSize: 0x20 }
  - { offsetInCU: 0x29854, offset: 0x29854, size: 0x8, addend: 0x0, symName: __ZNKSt3__122__compressed_pair_elemINS_12basic_stringIcNS_11char_traitsIcEENS_9allocatorIcEEE5__repELi0ELb0EE5__getB7v160006Ev, symObjAddr: 0xBC30, symBinAddr: 0x10000EE00, symSize: 0x10 }
  - { offsetInCU: 0x2987A, offset: 0x2987A, size: 0x8, addend: 0x0, symName: __ZNSt3__117__compressed_pairINS_12basic_stringIcNS_11char_traitsIcEENS_9allocatorIcEEE5__repES5_E5firstB7v160006Ev, symObjAddr: 0xBC40, symBinAddr: 0x10000EE10, symSize: 0x20 }
  - { offsetInCU: 0x298A0, offset: 0x298A0, size: 0x8, addend: 0x0, symName: __ZNSt3__122__compressed_pair_elemINS_12basic_stringIcNS_11char_traitsIcEENS_9allocatorIcEEE5__repELi0ELb0EE5__getB7v160006Ev, symObjAddr: 0xBC60, symBinAddr: 0x10000EE30, symSize: 0x10 }
  - { offsetInCU: 0x298C6, offset: 0x298C6, size: 0x8, addend: 0x0, symName: __ZNSt3__114pointer_traitsIPcE10pointer_toB7v160006ERc, symObjAddr: 0xBC70, symBinAddr: 0x10000EE40, symSize: 0x10 }
  - { offsetInCU: 0x298E9, offset: 0x298E9, size: 0x8, addend: 0x0, symName: __ZNSt3__119ostreambuf_iteratorIcNS_11char_traitsIcEEEC2B7v160006ERNS_13basic_ostreamIcS2_EE, symObjAddr: 0xBC80, symBinAddr: 0x10000EE50, symSize: 0x50 }
  - { offsetInCU: 0x29921, offset: 0x29921, size: 0x8, addend: 0x0, symName: __ZNKSt3__19basic_iosIcNS_11char_traitsIcEEE5rdbufB7v160006Ev, symObjAddr: 0xBCD0, symBinAddr: 0x10000EEA0, symSize: 0x20 }
  - { offsetInCU: 0x29949, offset: 0x29949, size: 0x8, addend: 0x0, symName: __ZNKSt3__18ios_base5rdbufB7v160006Ev, symObjAddr: 0xBCF0, symBinAddr: 0x10000EEC0, symSize: 0x20 }
  - { offsetInCU: 0x2996F, offset: 0x2996F, size: 0x8, addend: 0x0, symName: __ZNSt3__111char_traitsIcE11eq_int_typeEii, symObjAddr: 0xBD10, symBinAddr: 0x10000EEE0, symSize: 0x20 }
  - { offsetInCU: 0x299A0, offset: 0x299A0, size: 0x8, addend: 0x0, symName: __ZNSt3__111char_traitsIcE3eofEv, symObjAddr: 0xBD30, symBinAddr: 0x10000EF00, symSize: 0x10 }
  - { offsetInCU: 0x299B4, offset: 0x299B4, size: 0x8, addend: 0x0, symName: __ZNKSt3__19basic_iosIcNS_11char_traitsIcEEE5widenB7v160006Ec, symObjAddr: 0xBD40, symBinAddr: 0x10000EF10, symSize: 0x80 }
  - { offsetInCU: 0x29A1D, offset: 0x29A1D, size: 0x8, addend: 0x0, symName: __ZNKSt3__15ctypeIcE5widenB7v160006Ec, symObjAddr: 0xBDF0, symBinAddr: 0x10000EFC0, symSize: 0x30 }
  - { offsetInCU: 0x29A52, offset: 0x29A52, size: 0x8, addend: 0x0, symName: __ZNSt3__18ios_base8setstateB7v160006Ej, symObjAddr: 0xBE20, symBinAddr: 0x10000EFF0, symSize: 0x30 }
  - { offsetInCU: 0x29A89, offset: 0x29A89, size: 0x8, addend: 0x0, symName: __ZNSt3__16vectorI5PointNS_9allocatorIS1_EEEC2B7v160006Ev, symObjAddr: 0xBE50, symBinAddr: 0x10000F020, symSize: 0x60 }
  - { offsetInCU: 0x29AB3, offset: 0x29AB3, size: 0x8, addend: 0x0, symName: __ZNSt3__117__compressed_pairIP5PointNS_9allocatorIS1_EEEC1B7v160006IDnNS_18__default_init_tagEEEOT_OT0_, symObjAddr: 0xBEB0, symBinAddr: 0x10000F080, symSize: 0x30 }
  - { offsetInCU: 0x29B0B, offset: 0x29B0B, size: 0x8, addend: 0x0, symName: __ZNSt3__117__compressed_pairIP5PointNS_9allocatorIS1_EEEC2B7v160006IDnNS_18__default_init_tagEEEOT_OT0_, symObjAddr: 0xBEE0, symBinAddr: 0x10000F0B0, symSize: 0x40 }
  - { offsetInCU: 0x29B63, offset: 0x29B63, size: 0x8, addend: 0x0, symName: __ZNSt3__122__compressed_pair_elemINS_9allocatorI5PointEELi1ELb1EEC2B7v160006ENS_18__default_init_tagE, symObjAddr: 0xBF20, symBinAddr: 0x10000F0F0, symSize: 0x20 }
  - { offsetInCU: 0x29B98, offset: 0x29B98, size: 0x8, addend: 0x0, symName: __ZNSt3__19allocatorI5PointEC2B7v160006Ev, symObjAddr: 0xBF40, symBinAddr: 0x10000F110, symSize: 0x20 }
  - { offsetInCU: 0x29BC2, offset: 0x29BC2, size: 0x8, addend: 0x0, symName: __ZNSt3__116__non_trivial_ifILb1ENS_9allocatorI5PointEEEC2B7v160006Ev, symObjAddr: 0xBF60, symBinAddr: 0x10000F130, symSize: 0xA }
...
